	.arch armv6
	.eabi_attribute 28, 1
	.eabi_attribute 20, 1
	.eabi_attribute 21, 1
	.eabi_attribute 23, 3
	.eabi_attribute 24, 1
	.eabi_attribute 25, 1
	.eabi_attribute 26, 2
	.eabi_attribute 30, 6
	.eabi_attribute 34, 1
	.eabi_attribute 18, 4
	.file	"main.cc"
	.text
	.section	.rodata
	.align	2
	.type	_ZStL19piecewise_construct, %object
	.size	_ZStL19piecewise_construct, 1
_ZStL19piecewise_construct:
	.space	1
	.section	.text._ZnwjPv,"axG",%progbits,_ZnwjPv,comdat
	.align	2
	.weak	_ZnwjPv
	.arch armv6
	.syntax unified
	.arm
	.fpu vfp
	.type	_ZnwjPv, %function
_ZnwjPv:
	.fnstart
.LFB358:
	@ args = 0, pretend = 0, frame = 8
	@ frame_needed = 1, uses_anonymous_args = 0
	@ link register save eliminated.
	str	fp, [sp, #-4]!
	add	fp, sp, #0
	sub	sp, sp, #12
	str	r0, [fp, #-8]
	str	r1, [fp, #-12]
	ldr	r3, [fp, #-12]
	mov	r0, r3
	add	sp, fp, #0
	@ sp needed
	ldr	fp, [sp], #4
	bx	lr
	.cantunwind
	.fnend
	.size	_ZnwjPv, .-_ZnwjPv
	.section	.text._ZdlPvS_,"axG",%progbits,_ZdlPvS_,comdat
	.align	2
	.weak	_ZdlPvS_
	.syntax unified
	.arm
	.fpu vfp
	.type	_ZdlPvS_, %function
_ZdlPvS_:
	.fnstart
.LFB360:
	@ args = 0, pretend = 0, frame = 8
	@ frame_needed = 1, uses_anonymous_args = 0
	@ link register save eliminated.
	str	fp, [sp, #-4]!
	add	fp, sp, #0
	sub	sp, sp, #12
	str	r0, [fp, #-8]
	str	r1, [fp, #-12]
	nop
	add	sp, fp, #0
	@ sp needed
	ldr	fp, [sp], #4
	bx	lr
	.cantunwind
	.fnend
	.size	_ZdlPvS_, .-_ZdlPvS_
	.section	.text._ZNKSt4hashIjEclEj,"axG",%progbits,_ZNKSt4hashIjEclEj,comdat
	.align	2
	.weak	_ZNKSt4hashIjEclEj
	.syntax unified
	.arm
	.fpu vfp
	.type	_ZNKSt4hashIjEclEj, %function
_ZNKSt4hashIjEclEj:
	.fnstart
.LFB617:
	@ args = 0, pretend = 0, frame = 8
	@ frame_needed = 1, uses_anonymous_args = 0
	@ link register save eliminated.
	str	fp, [sp, #-4]!
	add	fp, sp, #0
	sub	sp, sp, #12
	str	r0, [fp, #-8]
	str	r1, [fp, #-12]
	ldr	r3, [fp, #-12]
	mov	r0, r3
	add	sp, fp, #0
	@ sp needed
	ldr	fp, [sp], #4
	bx	lr
	.cantunwind
	.fnend
	.size	_ZNKSt4hashIjEclEj, .-_ZNKSt4hashIjEclEj
	.section	.text._ZNSt11char_traitsIcE6assignERcRKc,"axG",%progbits,_ZNSt11char_traitsIcE6assignERcRKc,comdat
	.align	2
	.weak	_ZNSt11char_traitsIcE6assignERcRKc
	.syntax unified
	.arm
	.fpu vfp
	.type	_ZNSt11char_traitsIcE6assignERcRKc, %function
_ZNSt11char_traitsIcE6assignERcRKc:
	.fnstart
.LFB857:
	@ args = 0, pretend = 0, frame = 8
	@ frame_needed = 1, uses_anonymous_args = 0
	@ link register save eliminated.
	str	fp, [sp, #-4]!
	add	fp, sp, #0
	sub	sp, sp, #12
	str	r0, [fp, #-8]
	str	r1, [fp, #-12]
	ldr	r3, [fp, #-12]
	ldrb	r2, [r3]	@ zero_extendqisi2
	ldr	r3, [fp, #-8]
	strb	r2, [r3]
	nop
	add	sp, fp, #0
	@ sp needed
	ldr	fp, [sp], #4
	bx	lr
	.cantunwind
	.fnend
	.size	_ZNSt11char_traitsIcE6assignERcRKc, .-_ZNSt11char_traitsIcE6assignERcRKc
	.section	.text._ZNSt11char_traitsIcE6lengthEPKc,"axG",%progbits,_ZNSt11char_traitsIcE6lengthEPKc,comdat
	.align	2
	.weak	_ZNSt11char_traitsIcE6lengthEPKc
	.syntax unified
	.arm
	.fpu vfp
	.type	_ZNSt11char_traitsIcE6lengthEPKc, %function
_ZNSt11char_traitsIcE6lengthEPKc:
	.fnstart
.LFB861:
	@ args = 0, pretend = 0, frame = 8
	@ frame_needed = 1, uses_anonymous_args = 0
	push	{fp, lr}
	add	fp, sp, #4
	sub	sp, sp, #8
	str	r0, [fp, #-8]
	ldr	r0, [fp, #-8]
	bl	strlen
	mov	r3, r0
	mov	r0, r3
	sub	sp, fp, #4
	@ sp needed
	pop	{fp, pc}
	.cantunwind
	.fnend
	.size	_ZNSt11char_traitsIcE6lengthEPKc, .-_ZNSt11char_traitsIcE6lengthEPKc
	.section	.rodata
	.align	2
.LC1:
	.ascii	"%d\000"
	.section	.text._ZNSt7__cxx119to_stringEi,"axG",%progbits,_ZNSt7__cxx119to_stringEi,comdat
	.align	2
	.weak	_ZNSt7__cxx119to_stringEi
	.syntax unified
	.arm
	.fpu vfp
	.type	_ZNSt7__cxx119to_stringEi, %function
_ZNSt7__cxx119to_stringEi:
	.fnstart
.LFB1277:
	@ args = 0, pretend = 0, frame = 8
	@ frame_needed = 1, uses_anonymous_args = 0
	push	{fp, lr}
	.save {fp, lr}
	.setfp fp, sp, #4
	add	fp, sp, #4
	.pad #16
	sub	sp, sp, #16
	str	r0, [fp, #-8]
	str	r1, [fp, #-12]
	ldr	r0, [fp, #-8]
	ldr	r3, [fp, #-12]
	str	r3, [sp]
	ldr	r3, .L11
	mov	r2, #16
	ldr	r1, .L11+4
	bl	_ZN9__gnu_cxx12__to_xstringINSt7__cxx1112basic_stringIcSt11char_traitsIcESaIcEEEcEET_PFiPT0_jPKS8_St9__va_listEjSB_z
	ldr	r0, [fp, #-8]
	sub	sp, fp, #4
	@ sp needed
	pop	{fp, pc}
.L12:
	.align	2
.L11:
	.word	.LC1
	.word	vsnprintf
	.fnend
	.size	_ZNSt7__cxx119to_stringEi, .-_ZNSt7__cxx119to_stringEi
	.section	.rodata
	.align	2
.LC2:
	.ascii	"%u\000"
	.section	.text._ZNSt7__cxx119to_stringEj,"axG",%progbits,_ZNSt7__cxx119to_stringEj,comdat
	.align	2
	.weak	_ZNSt7__cxx119to_stringEj
	.syntax unified
	.arm
	.fpu vfp
	.type	_ZNSt7__cxx119to_stringEj, %function
_ZNSt7__cxx119to_stringEj:
	.fnstart
.LFB1278:
	@ args = 0, pretend = 0, frame = 8
	@ frame_needed = 1, uses_anonymous_args = 0
	push	{fp, lr}
	.save {fp, lr}
	.setfp fp, sp, #4
	add	fp, sp, #4
	.pad #16
	sub	sp, sp, #16
	str	r0, [fp, #-8]
	str	r1, [fp, #-12]
	ldr	r0, [fp, #-8]
	ldr	r3, [fp, #-12]
	str	r3, [sp]
	ldr	r3, .L15
	mov	r2, #16
	ldr	r1, .L15+4
	bl	_ZN9__gnu_cxx12__to_xstringINSt7__cxx1112basic_stringIcSt11char_traitsIcESaIcEEEcEET_PFiPT0_jPKS8_St9__va_listEjSB_z
	ldr	r0, [fp, #-8]
	sub	sp, fp, #4
	@ sp needed
	pop	{fp, pc}
.L16:
	.align	2
.L15:
	.word	.LC2
	.word	vsnprintf
	.fnend
	.size	_ZNSt7__cxx119to_stringEj, .-_ZNSt7__cxx119to_stringEj
	.local	_ZStL8__ioinit
	.comm	_ZStL8__ioinit,1,4
	.section	.rodata
	.align	2
	.type	_ZStL13allocator_arg, %object
	.size	_ZStL13allocator_arg, 1
_ZStL13allocator_arg:
	.space	1
	.align	2
	.type	_ZStL6ignore, %object
	.size	_ZStL6ignore, 1
_ZStL6ignore:
	.space	1
	.section	.text._ZNSt8__detail15_Hash_node_baseC2Ev,"axG",%progbits,_ZNSt8__detail15_Hash_node_baseC5Ev,comdat
	.align	2
	.weak	_ZNSt8__detail15_Hash_node_baseC2Ev
	.syntax unified
	.arm
	.fpu vfp
	.type	_ZNSt8__detail15_Hash_node_baseC2Ev, %function
_ZNSt8__detail15_Hash_node_baseC2Ev:
	.fnstart
.LFB2133:
	@ args = 0, pretend = 0, frame = 8
	@ frame_needed = 1, uses_anonymous_args = 0
	@ link register save eliminated.
	str	fp, [sp, #-4]!
	add	fp, sp, #0
	sub	sp, sp, #12
	str	r0, [fp, #-8]
	ldr	r3, [fp, #-8]
	mov	r2, #0
	str	r2, [r3]
	ldr	r3, [fp, #-8]
	mov	r0, r3
	add	sp, fp, #0
	@ sp needed
	ldr	fp, [sp], #4
	bx	lr
	.cantunwind
	.fnend
	.size	_ZNSt8__detail15_Hash_node_baseC2Ev, .-_ZNSt8__detail15_Hash_node_baseC2Ev
	.weak	_ZNSt8__detail15_Hash_node_baseC1Ev
	.set	_ZNSt8__detail15_Hash_node_baseC1Ev,_ZNSt8__detail15_Hash_node_baseC2Ev
	.global	__aeabi_uidivmod
	.section	.text._ZNKSt8__detail18_Mod_range_hashingclEjj,"axG",%progbits,_ZNKSt8__detail18_Mod_range_hashingclEjj,comdat
	.align	2
	.weak	_ZNKSt8__detail18_Mod_range_hashingclEjj
	.syntax unified
	.arm
	.fpu vfp
	.type	_ZNKSt8__detail18_Mod_range_hashingclEjj, %function
_ZNKSt8__detail18_Mod_range_hashingclEjj:
	.fnstart
.LFB2161:
	@ args = 0, pretend = 0, frame = 16
	@ frame_needed = 1, uses_anonymous_args = 0
	push	{fp, lr}
	add	fp, sp, #4
	sub	sp, sp, #16
	str	r0, [fp, #-8]
	str	r1, [fp, #-12]
	str	r2, [fp, #-16]
	ldr	r3, [fp, #-12]
	ldr	r1, [fp, #-16]
	mov	r0, r3
	bl	__aeabi_uidivmod
	mov	r3, r1
	mov	r0, r3
	sub	sp, fp, #4
	@ sp needed
	pop	{fp, pc}
	.cantunwind
	.fnend
	.size	_ZNKSt8__detail18_Mod_range_hashingclEjj, .-_ZNKSt8__detail18_Mod_range_hashingclEjj
	.section	.text._ZNSt8__detail20_Prime_rehash_policyC2Ef,"axG",%progbits,_ZNSt8__detail20_Prime_rehash_policyC5Ef,comdat
	.align	2
	.weak	_ZNSt8__detail20_Prime_rehash_policyC2Ef
	.syntax unified
	.arm
	.fpu vfp
	.type	_ZNSt8__detail20_Prime_rehash_policyC2Ef, %function
_ZNSt8__detail20_Prime_rehash_policyC2Ef:
	.fnstart
.LFB2163:
	@ args = 0, pretend = 0, frame = 8
	@ frame_needed = 1, uses_anonymous_args = 0
	@ link register save eliminated.
	str	fp, [sp, #-4]!
	add	fp, sp, #0
	sub	sp, sp, #12
	str	r0, [fp, #-8]
	vstr.32	s0, [fp, #-12]
	ldr	r3, [fp, #-8]
	ldr	r2, [fp, #-12]	@ float
	str	r2, [r3]	@ float
	ldr	r3, [fp, #-8]
	mov	r2, #0
	str	r2, [r3, #4]
	ldr	r3, [fp, #-8]
	mov	r0, r3
	add	sp, fp, #0
	@ sp needed
	ldr	fp, [sp], #4
	bx	lr
	.cantunwind
	.fnend
	.size	_ZNSt8__detail20_Prime_rehash_policyC2Ef, .-_ZNSt8__detail20_Prime_rehash_policyC2Ef
	.weak	_ZNSt8__detail20_Prime_rehash_policyC1Ef
	.set	_ZNSt8__detail20_Prime_rehash_policyC1Ef,_ZNSt8__detail20_Prime_rehash_policyC2Ef
	.section	.text._ZNKSt8__detail20_Prime_rehash_policy19_M_bkt_for_elementsEj,"axG",%progbits,_ZNKSt8__detail20_Prime_rehash_policy19_M_bkt_for_elementsEj,comdat
	.align	2
	.weak	_ZNKSt8__detail20_Prime_rehash_policy19_M_bkt_for_elementsEj
	.syntax unified
	.arm
	.fpu vfp
	.type	_ZNKSt8__detail20_Prime_rehash_policy19_M_bkt_for_elementsEj, %function
_ZNKSt8__detail20_Prime_rehash_policy19_M_bkt_for_elementsEj:
	.fnstart
.LFB2166:
	@ args = 0, pretend = 0, frame = 8
	@ frame_needed = 1, uses_anonymous_args = 0
	push	{fp, lr}
	add	fp, sp, #4
	sub	sp, sp, #8
	str	r0, [fp, #-8]
	str	r1, [fp, #-12]
	ldr	r3, [fp, #-12]
	vmov	s15, r3	@ int
	vcvt.f64.u32	d6, s15
	ldr	r3, [fp, #-8]
	vldr.32	s15, [r3]
	vcvt.f64.f32	d7, s15
	vdiv.f64	d5, d6, d7
	vmov.f64	d0, d5
	bl	ceil
	vmov.f64	d7, d0
	vcvt.u32.f64	s15, d7
	vmov	r3, s15	@ int
	mov	r0, r3
	sub	sp, fp, #4
	@ sp needed
	pop	{fp, pc}
	.cantunwind
	.fnend
	.size	_ZNKSt8__detail20_Prime_rehash_policy19_M_bkt_for_elementsEj, .-_ZNKSt8__detail20_Prime_rehash_policy19_M_bkt_for_elementsEj
	.section	.text._ZNKSt8__detail20_Prime_rehash_policy8_M_stateEv,"axG",%progbits,_ZNKSt8__detail20_Prime_rehash_policy8_M_stateEv,comdat
	.align	2
	.weak	_ZNKSt8__detail20_Prime_rehash_policy8_M_stateEv
	.syntax unified
	.arm
	.fpu vfp
	.type	_ZNKSt8__detail20_Prime_rehash_policy8_M_stateEv, %function
_ZNKSt8__detail20_Prime_rehash_policy8_M_stateEv:
	.fnstart
.LFB2167:
	@ args = 0, pretend = 0, frame = 8
	@ frame_needed = 1, uses_anonymous_args = 0
	@ link register save eliminated.
	str	fp, [sp, #-4]!
	add	fp, sp, #0
	sub	sp, sp, #12
	str	r0, [fp, #-8]
	ldr	r3, [fp, #-8]
	ldr	r3, [r3, #4]
	mov	r0, r3
	add	sp, fp, #0
	@ sp needed
	ldr	fp, [sp], #4
	bx	lr
	.cantunwind
	.fnend
	.size	_ZNKSt8__detail20_Prime_rehash_policy8_M_stateEv, .-_ZNKSt8__detail20_Prime_rehash_policy8_M_stateEv
	.section	.text._ZNSt8__detail20_Prime_rehash_policy8_M_resetEj,"axG",%progbits,_ZNSt8__detail20_Prime_rehash_policy8_M_resetEj,comdat
	.align	2
	.weak	_ZNSt8__detail20_Prime_rehash_policy8_M_resetEj
	.syntax unified
	.arm
	.fpu vfp
	.type	_ZNSt8__detail20_Prime_rehash_policy8_M_resetEj, %function
_ZNSt8__detail20_Prime_rehash_policy8_M_resetEj:
	.fnstart
.LFB2169:
	@ args = 0, pretend = 0, frame = 8
	@ frame_needed = 1, uses_anonymous_args = 0
	@ link register save eliminated.
	str	fp, [sp, #-4]!
	add	fp, sp, #0
	sub	sp, sp, #12
	str	r0, [fp, #-8]
	str	r1, [fp, #-12]
	ldr	r3, [fp, #-8]
	ldr	r2, [fp, #-12]
	str	r2, [r3, #4]
	nop
	add	sp, fp, #0
	@ sp needed
	ldr	fp, [sp], #4
	bx	lr
	.cantunwind
	.fnend
	.size	_ZNSt8__detail20_Prime_rehash_policy8_M_resetEj, .-_ZNSt8__detail20_Prime_rehash_policy8_M_resetEj
	.section	.text._ZNSt4pairIKjNSt7__cxx1112basic_stringIcSt11char_traitsIcESaIcEEEED2Ev,"axG",%progbits,_ZNSt4pairIKjNSt7__cxx1112basic_stringIcSt11char_traitsIcESaIcEEEED5Ev,comdat
	.align	2
	.weak	_ZNSt4pairIKjNSt7__cxx1112basic_stringIcSt11char_traitsIcESaIcEEEED2Ev
	.syntax unified
	.arm
	.fpu vfp
	.type	_ZNSt4pairIKjNSt7__cxx1112basic_stringIcSt11char_traitsIcESaIcEEEED2Ev, %function
_ZNSt4pairIKjNSt7__cxx1112basic_stringIcSt11char_traitsIcESaIcEEEED2Ev:
	.fnstart
.LFB2544:
	@ args = 0, pretend = 0, frame = 8
	@ frame_needed = 1, uses_anonymous_args = 0
	push	{fp, lr}
	add	fp, sp, #4
	sub	sp, sp, #8
	str	r0, [fp, #-8]
	ldr	r3, [fp, #-8]
	add	r3, r3, #4
	mov	r0, r3
	bl	_ZNSt7__cxx1112basic_stringIcSt11char_traitsIcESaIcEED1Ev
	ldr	r3, [fp, #-8]
	mov	r0, r3
	sub	sp, fp, #4
	@ sp needed
	pop	{fp, pc}
	.cantunwind
	.fnend
	.size	_ZNSt4pairIKjNSt7__cxx1112basic_stringIcSt11char_traitsIcESaIcEEEED2Ev, .-_ZNSt4pairIKjNSt7__cxx1112basic_stringIcSt11char_traitsIcESaIcEEEED2Ev
	.weak	_ZNSt4pairIKjNSt7__cxx1112basic_stringIcSt11char_traitsIcESaIcEEEED1Ev
	.set	_ZNSt4pairIKjNSt7__cxx1112basic_stringIcSt11char_traitsIcESaIcEEEED1Ev,_ZNSt4pairIKjNSt7__cxx1112basic_stringIcSt11char_traitsIcESaIcEEEED2Ev
	.section	.text._ZNSt4pairIKjNSt7__cxx1112basic_stringIcSt11char_traitsIcESaIcEEEEC1IjRA3_KcLb1EEEOT_OT0_,"axG",%progbits,_ZNSt4pairIKjNSt7__cxx1112basic_stringIcSt11char_traitsIcESaIcEEEEC1IjRA3_KcLb1EEEOT_OT0_,comdat
	.align	2
	.weak	_ZNSt4pairIKjNSt7__cxx1112basic_stringIcSt11char_traitsIcESaIcEEEEC1IjRA3_KcLb1EEEOT_OT0_
	.syntax unified
	.arm
	.fpu vfp
	.type	_ZNSt4pairIKjNSt7__cxx1112basic_stringIcSt11char_traitsIcESaIcEEEEC1IjRA3_KcLb1EEEOT_OT0_, %function
_ZNSt4pairIKjNSt7__cxx1112basic_stringIcSt11char_traitsIcESaIcEEEEC1IjRA3_KcLb1EEEOT_OT0_:
	.fnstart
.LFB2548:
	@ args = 0, pretend = 0, frame = 24
	@ frame_needed = 1, uses_anonymous_args = 0
	push	{r4, r5, fp, lr}
	.save {r4, r5, fp, lr}
	.setfp fp, sp, #12
	add	fp, sp, #12
	.pad #24
	sub	sp, sp, #24
	str	r0, [fp, #-24]
	str	r1, [fp, #-28]
	str	r2, [fp, #-32]
	ldr	r0, [fp, #-28]
	bl	_ZSt7forwardIjEOT_RNSt16remove_referenceIS0_E4typeE
	mov	r3, r0
	ldr	r2, [r3]
	ldr	r3, [fp, #-24]
	str	r2, [r3]
	ldr	r3, [fp, #-24]
	add	r4, r3, #4
	ldr	r0, [fp, #-32]
	bl	_ZSt7forwardIRA3_KcEOT_RNSt16remove_referenceIS3_E4typeE
	mov	r5, r0
	sub	r3, fp, #16
	mov	r0, r3
	bl	_ZNSaIcEC1Ev
	sub	r3, fp, #16
	mov	r2, r3
	mov	r1, r5
	mov	r0, r4
.LEHB0:
	bl	_ZNSt7__cxx1112basic_stringIcSt11char_traitsIcESaIcEEC1EPKcRKS3_
.LEHE0:
	sub	r3, fp, #16
	mov	r0, r3
	bl	_ZNSaIcED1Ev
	ldr	r3, [fp, #-24]
	b	.L34
.L33:
	sub	r3, fp, #16
	mov	r0, r3
	bl	_ZNSaIcED1Ev
.LEHB1:
	bl	__cxa_end_cleanup
.LEHE1:
.L34:
	mov	r0, r3
	sub	sp, fp, #12
	@ sp needed
	pop	{r4, r5, fp, pc}
	.global	__gxx_personality_v0
	.personality	__gxx_personality_v0
	.handlerdata
.LLSDA2548:
	.byte	0xff
	.byte	0xff
	.byte	0x1
	.uleb128 .LLSDACSE2548-.LLSDACSB2548
.LLSDACSB2548:
	.uleb128 .LEHB0-.LFB2548
	.uleb128 .LEHE0-.LEHB0
	.uleb128 .L33-.LFB2548
	.uleb128 0
	.uleb128 .LEHB1-.LFB2548
	.uleb128 .LEHE1-.LEHB1
	.uleb128 0
	.uleb128 0
.LLSDACSE2548:
	.section	.text._ZNSt4pairIKjNSt7__cxx1112basic_stringIcSt11char_traitsIcESaIcEEEEC1IjRA3_KcLb1EEEOT_OT0_,"axG",%progbits,_ZNSt4pairIKjNSt7__cxx1112basic_stringIcSt11char_traitsIcESaIcEEEEC1IjRA3_KcLb1EEEOT_OT0_,comdat
	.fnend
	.size	_ZNSt4pairIKjNSt7__cxx1112basic_stringIcSt11char_traitsIcESaIcEEEEC1IjRA3_KcLb1EEEOT_OT0_, .-_ZNSt4pairIKjNSt7__cxx1112basic_stringIcSt11char_traitsIcESaIcEEEEC1IjRA3_KcLb1EEEOT_OT0_
	.section	.text._ZNSt4pairIKjNSt7__cxx1112basic_stringIcSt11char_traitsIcESaIcEEEEC1IjRA1_KcLb1EEEOT_OT0_,"axG",%progbits,_ZNSt4pairIKjNSt7__cxx1112basic_stringIcSt11char_traitsIcESaIcEEEEC1IjRA1_KcLb1EEEOT_OT0_,comdat
	.align	2
	.weak	_ZNSt4pairIKjNSt7__cxx1112basic_stringIcSt11char_traitsIcESaIcEEEEC1IjRA1_KcLb1EEEOT_OT0_
	.syntax unified
	.arm
	.fpu vfp
	.type	_ZNSt4pairIKjNSt7__cxx1112basic_stringIcSt11char_traitsIcESaIcEEEEC1IjRA1_KcLb1EEEOT_OT0_, %function
_ZNSt4pairIKjNSt7__cxx1112basic_stringIcSt11char_traitsIcESaIcEEEEC1IjRA1_KcLb1EEEOT_OT0_:
	.fnstart
.LFB2551:
	@ args = 0, pretend = 0, frame = 24
	@ frame_needed = 1, uses_anonymous_args = 0
	push	{r4, r5, fp, lr}
	.save {r4, r5, fp, lr}
	.setfp fp, sp, #12
	add	fp, sp, #12
	.pad #24
	sub	sp, sp, #24
	str	r0, [fp, #-24]
	str	r1, [fp, #-28]
	str	r2, [fp, #-32]
	ldr	r0, [fp, #-28]
	bl	_ZSt7forwardIjEOT_RNSt16remove_referenceIS0_E4typeE
	mov	r3, r0
	ldr	r2, [r3]
	ldr	r3, [fp, #-24]
	str	r2, [r3]
	ldr	r3, [fp, #-24]
	add	r4, r3, #4
	ldr	r0, [fp, #-32]
	bl	_ZSt7forwardIRA1_KcEOT_RNSt16remove_referenceIS3_E4typeE
	mov	r5, r0
	sub	r3, fp, #16
	mov	r0, r3
	bl	_ZNSaIcEC1Ev
	sub	r3, fp, #16
	mov	r2, r3
	mov	r1, r5
	mov	r0, r4
.LEHB2:
	bl	_ZNSt7__cxx1112basic_stringIcSt11char_traitsIcESaIcEEC1EPKcRKS3_
.LEHE2:
	sub	r3, fp, #16
	mov	r0, r3
	bl	_ZNSaIcED1Ev
	ldr	r3, [fp, #-24]
	b	.L39
.L38:
	sub	r3, fp, #16
	mov	r0, r3
	bl	_ZNSaIcED1Ev
.LEHB3:
	bl	__cxa_end_cleanup
.LEHE3:
.L39:
	mov	r0, r3
	sub	sp, fp, #12
	@ sp needed
	pop	{r4, r5, fp, pc}
	.personality	__gxx_personality_v0
	.handlerdata
.LLSDA2551:
	.byte	0xff
	.byte	0xff
	.byte	0x1
	.uleb128 .LLSDACSE2551-.LLSDACSB2551
.LLSDACSB2551:
	.uleb128 .LEHB2-.LFB2551
	.uleb128 .LEHE2-.LEHB2
	.uleb128 .L38-.LFB2551
	.uleb128 0
	.uleb128 .LEHB3-.LFB2551
	.uleb128 .LEHE3-.LEHB3
	.uleb128 0
	.uleb128 0
.LLSDACSE2551:
	.section	.text._ZNSt4pairIKjNSt7__cxx1112basic_stringIcSt11char_traitsIcESaIcEEEEC1IjRA1_KcLb1EEEOT_OT0_,"axG",%progbits,_ZNSt4pairIKjNSt7__cxx1112basic_stringIcSt11char_traitsIcESaIcEEEEC1IjRA1_KcLb1EEEOT_OT0_,comdat
	.fnend
	.size	_ZNSt4pairIKjNSt7__cxx1112basic_stringIcSt11char_traitsIcESaIcEEEEC1IjRA1_KcLb1EEEOT_OT0_, .-_ZNSt4pairIKjNSt7__cxx1112basic_stringIcSt11char_traitsIcESaIcEEEEC1IjRA1_KcLb1EEEOT_OT0_
	.global	_Z15condition_codesB5cxx11
	.bss
	.align	2
	.type	_Z15condition_codesB5cxx11, %object
	.size	_Z15condition_codesB5cxx11, 28
_Z15condition_codesB5cxx11:
	.space	28
	.text
	.align	2
	.global	_Z18get_condition_codeB5cxx11j
	.syntax unified
	.arm
	.fpu vfp
	.type	_Z18get_condition_codeB5cxx11j, %function
_Z18get_condition_codeB5cxx11j:
	.fnstart
.LFB2552:
	@ args = 0, pretend = 0, frame = 16
	@ frame_needed = 1, uses_anonymous_args = 0
	push	{fp, lr}
	.save {fp, lr}
	.setfp fp, sp, #4
	add	fp, sp, #4
	.pad #16
	sub	sp, sp, #16
	str	r0, [fp, #-16]
	str	r1, [fp, #-20]
	ldr	r3, [fp, #-20]
	lsr	r3, r3, #28
	str	r3, [fp, #-8]
	sub	r3, fp, #8
	mov	r1, r3
	ldr	r0, .L42
	bl	_ZNSt13unordered_mapIjNSt7__cxx1112basic_stringIcSt11char_traitsIcESaIcEEESt4hashIjESt8equal_toIjESaISt4pairIKjS5_EEEixEOj
	mov	r3, r0
	mov	r1, r3
	ldr	r0, [fp, #-16]
	bl	_ZNSt7__cxx1112basic_stringIcSt11char_traitsIcESaIcEEC1ERKS4_
	ldr	r0, [fp, #-16]
	sub	sp, fp, #4
	@ sp needed
	pop	{fp, pc}
.L43:
	.align	2
.L42:
	.word	_Z15condition_codesB5cxx11
	.fnend
	.size	_Z18get_condition_codeB5cxx11j, .-_Z18get_condition_codeB5cxx11j
	.align	2
	.global	_Z10check_bitsjjj
	.syntax unified
	.arm
	.fpu vfp
	.type	_Z10check_bitsjjj, %function
_Z10check_bitsjjj:
	.fnstart
.LFB2672:
	@ args = 0, pretend = 0, frame = 16
	@ frame_needed = 1, uses_anonymous_args = 0
	@ link register save eliminated.
	str	fp, [sp, #-4]!
	add	fp, sp, #0
	sub	sp, sp, #20
	str	r0, [fp, #-8]
	str	r1, [fp, #-12]
	str	r2, [fp, #-16]
	ldr	r2, [fp, #-8]
	ldr	r3, [fp, #-12]
	and	r3, r3, r2
	ldr	r2, [fp, #-16]
	cmp	r2, r3
	moveq	r3, #1
	movne	r3, #0
	uxtb	r3, r3
	mov	r0, r3
	add	sp, fp, #0
	@ sp needed
	ldr	fp, [sp], #4
	bx	lr
	.cantunwind
	.fnend
	.size	_Z10check_bitsjjj, .-_Z10check_bitsjjj
	.align	2
	.global	_Z13print_to_fileNSt7__cxx1112basic_stringIcSt11char_traitsIcESaIcEEERSt6vectorIS4_SaIS4_EE
	.syntax unified
	.arm
	.fpu vfp
	.type	_Z13print_to_fileNSt7__cxx1112basic_stringIcSt11char_traitsIcESaIcEEERSt6vectorIS4_SaIS4_EE, %function
_Z13print_to_fileNSt7__cxx1112basic_stringIcSt11char_traitsIcESaIcEEERSt6vectorIS4_SaIS4_EE:
	.fnstart
.LFB2673:
	@ args = 0, pretend = 0, frame = 320
	@ frame_needed = 1, uses_anonymous_args = 0
	push	{fp, lr}
	.save {fp, lr}
	.setfp fp, sp, #4
	add	fp, sp, #4
	.pad #320
	sub	sp, sp, #320
	str	r0, [fp, #-320]
	str	r1, [fp, #-324]
	sub	r3, fp, #284
	mov	r2, #16
	ldr	r1, [fp, #-320]
	mov	r0, r3
.LEHB4:
	bl	_ZNSt14basic_ofstreamIcSt11char_traitsIcEEC1ERKNSt7__cxx1112basic_stringIcS1_SaIcEEESt13_Ios_Openmode
.LEHE4:
	ldr	r3, [fp, #-324]
	str	r3, [fp, #-8]
	ldr	r0, [fp, #-8]
	bl	_ZNSt6vectorINSt7__cxx1112basic_stringIcSt11char_traitsIcESaIcEEESaIS5_EE5beginEv
	mov	r3, r0
	str	r3, [fp, #-312]
	ldr	r0, [fp, #-8]
	bl	_ZNSt6vectorINSt7__cxx1112basic_stringIcSt11char_traitsIcESaIcEEESaIS5_EE3endEv
	mov	r3, r0
	str	r3, [fp, #-316]
.L48:
	sub	r2, fp, #316
	sub	r3, fp, #312
	mov	r1, r2
	mov	r0, r3
	bl	_ZN9__gnu_cxxneIPNSt7__cxx1112basic_stringIcSt11char_traitsIcESaIcEEESt6vectorIS6_SaIS6_EEEEbRKNS_17__normal_iteratorIT_T0_EESG_
	mov	r3, r0
	cmp	r3, #0
	beq	.L47
	sub	r3, fp, #312
	mov	r0, r3
	bl	_ZNK9__gnu_cxx17__normal_iteratorIPNSt7__cxx1112basic_stringIcSt11char_traitsIcESaIcEEESt6vectorIS6_SaIS6_EEEdeEv
	mov	r2, r0
	sub	r3, fp, #308
	mov	r1, r2
	mov	r0, r3
.LEHB5:
	bl	_ZNSt7__cxx1112basic_stringIcSt11char_traitsIcESaIcEEC1ERKS4_
.LEHE5:
	sub	r2, fp, #308
	sub	r3, fp, #284
	mov	r1, r2
	mov	r0, r3
.LEHB6:
	bl	_ZStlsIcSt11char_traitsIcESaIcEERSt13basic_ostreamIT_T0_ES7_RKNSt7__cxx1112basic_stringIS4_S5_T1_EE
	mov	r3, r0
	mov	r1, #10
	mov	r0, r3
	bl	_ZStlsISt11char_traitsIcEERSt13basic_ostreamIcT_ES5_c
.LEHE6:
	sub	r3, fp, #308
	mov	r0, r3
	bl	_ZNSt7__cxx1112basic_stringIcSt11char_traitsIcESaIcEED1Ev
	sub	r3, fp, #312
	mov	r0, r3
	bl	_ZN9__gnu_cxx17__normal_iteratorIPNSt7__cxx1112basic_stringIcSt11char_traitsIcESaIcEEESt6vectorIS6_SaIS6_EEEppEv
	b	.L48
.L47:
	sub	r3, fp, #284
	mov	r0, r3
	bl	_ZNSt14basic_ofstreamIcSt11char_traitsIcEED1Ev
	b	.L53
.L52:
	sub	r3, fp, #308
	mov	r0, r3
	bl	_ZNSt7__cxx1112basic_stringIcSt11char_traitsIcESaIcEED1Ev
	b	.L50
.L51:
.L50:
	sub	r3, fp, #284
	mov	r0, r3
	bl	_ZNSt14basic_ofstreamIcSt11char_traitsIcEED1Ev
.LEHB7:
	bl	__cxa_end_cleanup
.LEHE7:
.L53:
	sub	sp, fp, #4
	@ sp needed
	pop	{fp, pc}
	.personality	__gxx_personality_v0
	.handlerdata
.LLSDA2673:
	.byte	0xff
	.byte	0xff
	.byte	0x1
	.uleb128 .LLSDACSE2673-.LLSDACSB2673
.LLSDACSB2673:
	.uleb128 .LEHB4-.LFB2673
	.uleb128 .LEHE4-.LEHB4
	.uleb128 0
	.uleb128 0
	.uleb128 .LEHB5-.LFB2673
	.uleb128 .LEHE5-.LEHB5
	.uleb128 .L51-.LFB2673
	.uleb128 0
	.uleb128 .LEHB6-.LFB2673
	.uleb128 .LEHE6-.LEHB6
	.uleb128 .L52-.LFB2673
	.uleb128 0
	.uleb128 .LEHB7-.LFB2673
	.uleb128 .LEHE7-.LEHB7
	.uleb128 0
	.uleb128 0
.LLSDACSE2673:
	.text
	.fnend
	.size	_Z13print_to_fileNSt7__cxx1112basic_stringIcSt11char_traitsIcESaIcEEERSt6vectorIS4_SaIS4_EE, .-_Z13print_to_fileNSt7__cxx1112basic_stringIcSt11char_traitsIcESaIcEEERSt6vectorIS4_SaIS4_EE
	.section	.rodata
	.align	2
.LC3:
	.ascii	" \000"
	.text
	.align	2
	.global	_Z23create_instruction_textNSt7__cxx1112basic_stringIcSt11char_traitsIcESaIcEEES4_S4_S4_S4_S4_S4_
	.syntax unified
	.arm
	.fpu vfp
	.type	_Z23create_instruction_textNSt7__cxx1112basic_stringIcSt11char_traitsIcESaIcEEES4_S4_S4_S4_S4_S4_, %function
_Z23create_instruction_textNSt7__cxx1112basic_stringIcSt11char_traitsIcESaIcEEES4_S4_S4_S4_S4_S4_:
	.fnstart
.LFB2674:
	@ args = 16, pretend = 0, frame = 312
	@ frame_needed = 1, uses_anonymous_args = 0
	push	{fp, lr}
	.save {fp, lr}
	.setfp fp, sp, #4
	add	fp, sp, #4
	.pad #312
	sub	sp, sp, #312
	str	r0, [fp, #-304]
	str	r1, [fp, #-308]
	str	r2, [fp, #-312]
	str	r3, [fp, #-316]
	sub	r3, fp, #272
	mov	r0, r3
	bl	_ZNSaIcEC1Ev
	sub	r2, fp, #272
	sub	r3, fp, #296
	ldr	r1, .L83
	mov	r0, r3
.LEHB8:
	bl	_ZNSt7__cxx1112basic_stringIcSt11char_traitsIcESaIcEEC1EPKcRKS3_
.LEHE8:
	sub	r3, fp, #272
	mov	r0, r3
	bl	_ZNSaIcED1Ev
	sub	r3, fp, #28
	sub	r2, fp, #296
	ldr	r1, [fp, #-308]
	mov	r0, r3
.LEHB9:
	bl	_ZStplIcSt11char_traitsIcESaIcEENSt7__cxx1112basic_stringIT_T0_T1_EERKS8_SA_
.LEHE9:
	sub	r3, fp, #52
	sub	r1, fp, #28
	ldr	r2, [fp, #-312]
	mov	r0, r3
.LEHB10:
	bl	_ZStplIcSt11char_traitsIcESaIcEENSt7__cxx1112basic_stringIT_T0_T1_EEOS8_RKS8_
.LEHE10:
	sub	r3, fp, #76
	sub	r2, fp, #296
	sub	r1, fp, #52
	mov	r0, r3
.LEHB11:
	bl	_ZStplIcSt11char_traitsIcESaIcEENSt7__cxx1112basic_stringIT_T0_T1_EEOS8_RKS8_
.LEHE11:
	sub	r3, fp, #100
	sub	r1, fp, #76
	ldr	r2, [fp, #-316]
	mov	r0, r3
.LEHB12:
	bl	_ZStplIcSt11char_traitsIcESaIcEENSt7__cxx1112basic_stringIT_T0_T1_EEOS8_RKS8_
.LEHE12:
	sub	r3, fp, #124
	sub	r2, fp, #296
	sub	r1, fp, #100
	mov	r0, r3
.LEHB13:
	bl	_ZStplIcSt11char_traitsIcESaIcEENSt7__cxx1112basic_stringIT_T0_T1_EEOS8_RKS8_
.LEHE13:
	sub	r3, fp, #148
	sub	r1, fp, #124
	ldr	r2, [fp, #4]
	mov	r0, r3
.LEHB14:
	bl	_ZStplIcSt11char_traitsIcESaIcEENSt7__cxx1112basic_stringIT_T0_T1_EEOS8_RKS8_
.LEHE14:
	sub	r3, fp, #172
	sub	r2, fp, #296
	sub	r1, fp, #148
	mov	r0, r3
.LEHB15:
	bl	_ZStplIcSt11char_traitsIcESaIcEENSt7__cxx1112basic_stringIT_T0_T1_EEOS8_RKS8_
.LEHE15:
	sub	r3, fp, #196
	sub	r1, fp, #172
	ldr	r2, [fp, #8]
	mov	r0, r3
.LEHB16:
	bl	_ZStplIcSt11char_traitsIcESaIcEENSt7__cxx1112basic_stringIT_T0_T1_EEOS8_RKS8_
.LEHE16:
	sub	r3, fp, #220
	sub	r2, fp, #296
	sub	r1, fp, #196
	mov	r0, r3
.LEHB17:
	bl	_ZStplIcSt11char_traitsIcESaIcEENSt7__cxx1112basic_stringIT_T0_T1_EEOS8_RKS8_
.LEHE17:
	sub	r3, fp, #244
	sub	r1, fp, #220
	ldr	r2, [fp, #12]
	mov	r0, r3
.LEHB18:
	bl	_ZStplIcSt11char_traitsIcESaIcEENSt7__cxx1112basic_stringIT_T0_T1_EEOS8_RKS8_
.LEHE18:
	sub	r3, fp, #268
	sub	r2, fp, #296
	sub	r1, fp, #244
	mov	r0, r3
.LEHB19:
	bl	_ZStplIcSt11char_traitsIcESaIcEENSt7__cxx1112basic_stringIT_T0_T1_EEOS8_RKS8_
.LEHE19:
	ldr	r3, [fp, #-304]
	sub	r1, fp, #268
	ldr	r2, [fp, #16]
	mov	r0, r3
.LEHB20:
	bl	_ZStplIcSt11char_traitsIcESaIcEENSt7__cxx1112basic_stringIT_T0_T1_EEOS8_RKS8_
.LEHE20:
	nop
	sub	r3, fp, #268
	mov	r0, r3
	bl	_ZNSt7__cxx1112basic_stringIcSt11char_traitsIcESaIcEED1Ev
	sub	r3, fp, #244
	mov	r0, r3
	bl	_ZNSt7__cxx1112basic_stringIcSt11char_traitsIcESaIcEED1Ev
	sub	r3, fp, #220
	mov	r0, r3
	bl	_ZNSt7__cxx1112basic_stringIcSt11char_traitsIcESaIcEED1Ev
	sub	r3, fp, #196
	mov	r0, r3
	bl	_ZNSt7__cxx1112basic_stringIcSt11char_traitsIcESaIcEED1Ev
	sub	r3, fp, #172
	mov	r0, r3
	bl	_ZNSt7__cxx1112basic_stringIcSt11char_traitsIcESaIcEED1Ev
	sub	r3, fp, #148
	mov	r0, r3
	bl	_ZNSt7__cxx1112basic_stringIcSt11char_traitsIcESaIcEED1Ev
	sub	r3, fp, #124
	mov	r0, r3
	bl	_ZNSt7__cxx1112basic_stringIcSt11char_traitsIcESaIcEED1Ev
	sub	r3, fp, #100
	mov	r0, r3
	bl	_ZNSt7__cxx1112basic_stringIcSt11char_traitsIcESaIcEED1Ev
	sub	r3, fp, #76
	mov	r0, r3
	bl	_ZNSt7__cxx1112basic_stringIcSt11char_traitsIcESaIcEED1Ev
	sub	r3, fp, #52
	mov	r0, r3
	bl	_ZNSt7__cxx1112basic_stringIcSt11char_traitsIcESaIcEED1Ev
	sub	r3, fp, #28
	mov	r0, r3
	bl	_ZNSt7__cxx1112basic_stringIcSt11char_traitsIcESaIcEED1Ev
	sub	r3, fp, #296
	mov	r0, r3
	bl	_ZNSt7__cxx1112basic_stringIcSt11char_traitsIcESaIcEED1Ev
	b	.L82
.L69:
	sub	r3, fp, #272
	mov	r0, r3
	bl	_ZNSaIcED1Ev
.LEHB21:
	bl	__cxa_end_cleanup
.L81:
	sub	r3, fp, #268
	mov	r0, r3
	bl	_ZNSt7__cxx1112basic_stringIcSt11char_traitsIcESaIcEED1Ev
	b	.L58
.L80:
.L58:
	sub	r3, fp, #244
	mov	r0, r3
	bl	_ZNSt7__cxx1112basic_stringIcSt11char_traitsIcESaIcEED1Ev
	b	.L59
.L79:
.L59:
	sub	r3, fp, #220
	mov	r0, r3
	bl	_ZNSt7__cxx1112basic_stringIcSt11char_traitsIcESaIcEED1Ev
	b	.L60
.L78:
.L60:
	sub	r3, fp, #196
	mov	r0, r3
	bl	_ZNSt7__cxx1112basic_stringIcSt11char_traitsIcESaIcEED1Ev
	b	.L61
.L77:
.L61:
	sub	r3, fp, #172
	mov	r0, r3
	bl	_ZNSt7__cxx1112basic_stringIcSt11char_traitsIcESaIcEED1Ev
	b	.L62
.L76:
.L62:
	sub	r3, fp, #148
	mov	r0, r3
	bl	_ZNSt7__cxx1112basic_stringIcSt11char_traitsIcESaIcEED1Ev
	b	.L63
.L75:
.L63:
	sub	r3, fp, #124
	mov	r0, r3
	bl	_ZNSt7__cxx1112basic_stringIcSt11char_traitsIcESaIcEED1Ev
	b	.L64
.L74:
.L64:
	sub	r3, fp, #100
	mov	r0, r3
	bl	_ZNSt7__cxx1112basic_stringIcSt11char_traitsIcESaIcEED1Ev
	b	.L65
.L73:
.L65:
	sub	r3, fp, #76
	mov	r0, r3
	bl	_ZNSt7__cxx1112basic_stringIcSt11char_traitsIcESaIcEED1Ev
	b	.L66
.L72:
.L66:
	sub	r3, fp, #52
	mov	r0, r3
	bl	_ZNSt7__cxx1112basic_stringIcSt11char_traitsIcESaIcEED1Ev
	b	.L67
.L71:
.L67:
	sub	r3, fp, #28
	mov	r0, r3
	bl	_ZNSt7__cxx1112basic_stringIcSt11char_traitsIcESaIcEED1Ev
	b	.L68
.L70:
.L68:
	sub	r3, fp, #296
	mov	r0, r3
	bl	_ZNSt7__cxx1112basic_stringIcSt11char_traitsIcESaIcEED1Ev
	bl	__cxa_end_cleanup
.LEHE21:
.L82:
	ldr	r0, [fp, #-304]
	sub	sp, fp, #4
	@ sp needed
	pop	{fp, pc}
.L84:
	.align	2
.L83:
	.word	.LC3
	.personality	__gxx_personality_v0
	.handlerdata
.LLSDA2674:
	.byte	0xff
	.byte	0xff
	.byte	0x1
	.uleb128 .LLSDACSE2674-.LLSDACSB2674
.LLSDACSB2674:
	.uleb128 .LEHB8-.LFB2674
	.uleb128 .LEHE8-.LEHB8
	.uleb128 .L69-.LFB2674
	.uleb128 0
	.uleb128 .LEHB9-.LFB2674
	.uleb128 .LEHE9-.LEHB9
	.uleb128 .L70-.LFB2674
	.uleb128 0
	.uleb128 .LEHB10-.LFB2674
	.uleb128 .LEHE10-.LEHB10
	.uleb128 .L71-.LFB2674
	.uleb128 0
	.uleb128 .LEHB11-.LFB2674
	.uleb128 .LEHE11-.LEHB11
	.uleb128 .L72-.LFB2674
	.uleb128 0
	.uleb128 .LEHB12-.LFB2674
	.uleb128 .LEHE12-.LEHB12
	.uleb128 .L73-.LFB2674
	.uleb128 0
	.uleb128 .LEHB13-.LFB2674
	.uleb128 .LEHE13-.LEHB13
	.uleb128 .L74-.LFB2674
	.uleb128 0
	.uleb128 .LEHB14-.LFB2674
	.uleb128 .LEHE14-.LEHB14
	.uleb128 .L75-.LFB2674
	.uleb128 0
	.uleb128 .LEHB15-.LFB2674
	.uleb128 .LEHE15-.LEHB15
	.uleb128 .L76-.LFB2674
	.uleb128 0
	.uleb128 .LEHB16-.LFB2674
	.uleb128 .LEHE16-.LEHB16
	.uleb128 .L77-.LFB2674
	.uleb128 0
	.uleb128 .LEHB17-.LFB2674
	.uleb128 .LEHE17-.LEHB17
	.uleb128 .L78-.LFB2674
	.uleb128 0
	.uleb128 .LEHB18-.LFB2674
	.uleb128 .LEHE18-.LEHB18
	.uleb128 .L79-.LFB2674
	.uleb128 0
	.uleb128 .LEHB19-.LFB2674
	.uleb128 .LEHE19-.LEHB19
	.uleb128 .L80-.LFB2674
	.uleb128 0
	.uleb128 .LEHB20-.LFB2674
	.uleb128 .LEHE20-.LEHB20
	.uleb128 .L81-.LFB2674
	.uleb128 0
	.uleb128 .LEHB21-.LFB2674
	.uleb128 .LEHE21-.LEHB21
	.uleb128 0
	.uleb128 0
.LLSDACSE2674:
	.text
	.fnend
	.size	_Z23create_instruction_textNSt7__cxx1112basic_stringIcSt11char_traitsIcESaIcEEES4_S4_S4_S4_S4_S4_, .-_Z23create_instruction_textNSt7__cxx1112basic_stringIcSt11char_traitsIcESaIcEEES4_S4_S4_S4_S4_S4_
	.section	.rodata
	.align	2
.LC4:
	.ascii	"SH\000"
	.align	2
.LC5:
	.ascii	"SB\000"
	.align	2
.LC6:
	.ascii	"H\000"
	.align	2
.LC7:
	.ascii	"\000"
	.text
	.align	2
	.global	_Z11get_sb_sh_hB5cxx11jj
	.syntax unified
	.arm
	.fpu vfp
	.type	_Z11get_sb_sh_hB5cxx11jj, %function
_Z11get_sb_sh_hB5cxx11jj:
	.fnstart
.LFB2675:
	@ args = 0, pretend = 0, frame = 72
	@ frame_needed = 1, uses_anonymous_args = 0
	push	{r4, fp, lr}
	.save {r4, fp, lr}
	.setfp fp, sp, #8
	add	fp, sp, #8
	.pad #76
	sub	sp, sp, #76
	str	r0, [fp, #-72]
	str	r1, [fp, #-76]
	str	r2, [fp, #-80]
	ldr	r0, [fp, #-72]
	bl	_ZNSt7__cxx1112basic_stringIcSt11char_traitsIcESaIcEEC1Ev
	ldr	r3, [fp, #-76]
	cmp	r3, #0
	beq	.L86
	ldr	r3, [fp, #-80]
	cmp	r3, #1
	bne	.L87
	ldr	r4, .L98
	b	.L88
.L87:
	ldr	r4, .L98+4
.L88:
	sub	r3, fp, #20
	mov	r0, r3
	bl	_ZNSaIcEC1Ev
	sub	r2, fp, #20
	sub	r3, fp, #44
	mov	r1, r4
	mov	r0, r3
.LEHB22:
	bl	_ZNSt7__cxx1112basic_stringIcSt11char_traitsIcESaIcEEC1EPKcRKS3_
.LEHE22:
	sub	r3, fp, #20
	mov	r0, r3
	bl	_ZNSaIcED1Ev
	sub	r3, fp, #44
	mov	r0, r3
	bl	_ZNSt7__cxx1112basic_stringIcSt11char_traitsIcESaIcEED1Ev
	b	.L85
.L86:
	ldr	r3, [fp, #-80]
	cmp	r3, #1
	bne	.L90
	ldr	r4, .L98+8
	b	.L91
.L90:
	ldr	r4, .L98+12
.L91:
	sub	r3, fp, #16
	mov	r0, r3
	bl	_ZNSaIcEC1Ev
	sub	r2, fp, #16
	sub	r3, fp, #68
	mov	r1, r4
	mov	r0, r3
.LEHB23:
	bl	_ZNSt7__cxx1112basic_stringIcSt11char_traitsIcESaIcEEC1EPKcRKS3_
.LEHE23:
	sub	r3, fp, #16
	mov	r0, r3
	bl	_ZNSaIcED1Ev
	sub	r3, fp, #68
	mov	r0, r3
	bl	_ZNSt7__cxx1112basic_stringIcSt11char_traitsIcESaIcEED1Ev
	b	.L85
.L96:
	sub	r3, fp, #20
	mov	r0, r3
	bl	_ZNSaIcED1Ev
	b	.L94
.L97:
	sub	r3, fp, #16
	mov	r0, r3
	bl	_ZNSaIcED1Ev
.L94:
	ldr	r0, [fp, #-72]
	bl	_ZNSt7__cxx1112basic_stringIcSt11char_traitsIcESaIcEED1Ev
.LEHB24:
	bl	__cxa_end_cleanup
.LEHE24:
.L85:
	ldr	r0, [fp, #-72]
	sub	sp, fp, #8
	@ sp needed
	pop	{r4, fp, pc}
.L99:
	.align	2
.L98:
	.word	.LC4
	.word	.LC5
	.word	.LC6
	.word	.LC7
	.personality	__gxx_personality_v0
	.handlerdata
.LLSDA2675:
	.byte	0xff
	.byte	0xff
	.byte	0x1
	.uleb128 .LLSDACSE2675-.LLSDACSB2675
.LLSDACSB2675:
	.uleb128 .LEHB22-.LFB2675
	.uleb128 .LEHE22-.LEHB22
	.uleb128 .L96-.LFB2675
	.uleb128 0
	.uleb128 .LEHB23-.LFB2675
	.uleb128 .LEHE23-.LEHB23
	.uleb128 .L97-.LFB2675
	.uleb128 0
	.uleb128 .LEHB24-.LFB2675
	.uleb128 .LEHE24-.LEHB24
	.uleb128 0
	.uleb128 0
.LLSDACSE2675:
	.text
	.fnend
	.size	_Z11get_sb_sh_hB5cxx11jj, .-_Z11get_sb_sh_hB5cxx11jj
	.section	.text._ZNSt4pairIKjNSt7__cxx1112basic_stringIcSt11char_traitsIcESaIcEEEEC1IjRA4_KcLb1EEEOT_OT0_,"axG",%progbits,_ZNSt4pairIKjNSt7__cxx1112basic_stringIcSt11char_traitsIcESaIcEEEEC1IjRA4_KcLb1EEEOT_OT0_,comdat
	.align	2
	.weak	_ZNSt4pairIKjNSt7__cxx1112basic_stringIcSt11char_traitsIcESaIcEEEEC1IjRA4_KcLb1EEEOT_OT0_
	.syntax unified
	.arm
	.fpu vfp
	.type	_ZNSt4pairIKjNSt7__cxx1112basic_stringIcSt11char_traitsIcESaIcEEEEC1IjRA4_KcLb1EEEOT_OT0_, %function
_ZNSt4pairIKjNSt7__cxx1112basic_stringIcSt11char_traitsIcESaIcEEEEC1IjRA4_KcLb1EEEOT_OT0_:
	.fnstart
.LFB2682:
	@ args = 0, pretend = 0, frame = 24
	@ frame_needed = 1, uses_anonymous_args = 0
	push	{r4, r5, fp, lr}
	.save {r4, r5, fp, lr}
	.setfp fp, sp, #12
	add	fp, sp, #12
	.pad #24
	sub	sp, sp, #24
	str	r0, [fp, #-24]
	str	r1, [fp, #-28]
	str	r2, [fp, #-32]
	ldr	r0, [fp, #-28]
	bl	_ZSt7forwardIjEOT_RNSt16remove_referenceIS0_E4typeE
	mov	r3, r0
	ldr	r2, [r3]
	ldr	r3, [fp, #-24]
	str	r2, [r3]
	ldr	r3, [fp, #-24]
	add	r4, r3, #4
	ldr	r0, [fp, #-32]
	bl	_ZSt7forwardIRA4_KcEOT_RNSt16remove_referenceIS3_E4typeE
	mov	r5, r0
	sub	r3, fp, #16
	mov	r0, r3
	bl	_ZNSaIcEC1Ev
	sub	r3, fp, #16
	mov	r2, r3
	mov	r1, r5
	mov	r0, r4
.LEHB25:
	bl	_ZNSt7__cxx1112basic_stringIcSt11char_traitsIcESaIcEEC1EPKcRKS3_
.LEHE25:
	sub	r3, fp, #16
	mov	r0, r3
	bl	_ZNSaIcED1Ev
	ldr	r3, [fp, #-24]
	b	.L104
.L103:
	sub	r3, fp, #16
	mov	r0, r3
	bl	_ZNSaIcED1Ev
.LEHB26:
	bl	__cxa_end_cleanup
.LEHE26:
.L104:
	mov	r0, r3
	sub	sp, fp, #12
	@ sp needed
	pop	{r4, r5, fp, pc}
	.personality	__gxx_personality_v0
	.handlerdata
.LLSDA2682:
	.byte	0xff
	.byte	0xff
	.byte	0x1
	.uleb128 .LLSDACSE2682-.LLSDACSB2682
.LLSDACSB2682:
	.uleb128 .LEHB25-.LFB2682
	.uleb128 .LEHE25-.LEHB25
	.uleb128 .L103-.LFB2682
	.uleb128 0
	.uleb128 .LEHB26-.LFB2682
	.uleb128 .LEHE26-.LEHB26
	.uleb128 0
	.uleb128 0
.LLSDACSE2682:
	.section	.text._ZNSt4pairIKjNSt7__cxx1112basic_stringIcSt11char_traitsIcESaIcEEEEC1IjRA4_KcLb1EEEOT_OT0_,"axG",%progbits,_ZNSt4pairIKjNSt7__cxx1112basic_stringIcSt11char_traitsIcESaIcEEEEC1IjRA4_KcLb1EEEOT_OT0_,comdat
	.fnend
	.size	_ZNSt4pairIKjNSt7__cxx1112basic_stringIcSt11char_traitsIcESaIcEEEEC1IjRA4_KcLb1EEEOT_OT0_, .-_ZNSt4pairIKjNSt7__cxx1112basic_stringIcSt11char_traitsIcESaIcEEEEC1IjRA4_KcLb1EEEOT_OT0_
	.global	_Z8op_codesB5cxx11
	.bss
	.align	2
	.type	_Z8op_codesB5cxx11, %object
	.size	_Z8op_codesB5cxx11, 28
_Z8op_codesB5cxx11:
	.space	28
	.text
	.align	2
	.global	_Z11get_op_codeB5cxx11jj
	.syntax unified
	.arm
	.fpu vfp
	.type	_Z11get_op_codeB5cxx11jj, %function
_Z11get_op_codeB5cxx11jj:
	.fnstart
.LFB2683:
	@ args = 0, pretend = 0, frame = 24
	@ frame_needed = 1, uses_anonymous_args = 0
	push	{fp, lr}
	.save {fp, lr}
	.setfp fp, sp, #4
	add	fp, sp, #4
	.pad #24
	sub	sp, sp, #24
	str	r0, [fp, #-16]
	str	r1, [fp, #-20]
	str	r2, [fp, #-24]
	ldr	r2, [fp, #-20]
	ldr	r3, [fp, #-24]
	lsr	r3, r2, r3
	and	r3, r3, #15
	str	r3, [fp, #-8]
	sub	r3, fp, #8
	mov	r1, r3
	ldr	r0, .L107
	bl	_ZNSt13unordered_mapIjNSt7__cxx1112basic_stringIcSt11char_traitsIcESaIcEEESt4hashIjESt8equal_toIjESaISt4pairIKjS5_EEEixEOj
	mov	r3, r0
	mov	r1, r3
	ldr	r0, [fp, #-16]
	bl	_ZNSt7__cxx1112basic_stringIcSt11char_traitsIcESaIcEEC1ERKS4_
	ldr	r0, [fp, #-16]
	sub	sp, fp, #4
	@ sp needed
	pop	{fp, pc}
.L108:
	.align	2
.L107:
	.word	_Z8op_codesB5cxx11
	.fnend
	.size	_Z11get_op_codeB5cxx11jj, .-_Z11get_op_codeB5cxx11jj
	.global	_Z9registersB5cxx11
	.bss
	.align	2
	.type	_Z9registersB5cxx11, %object
	.size	_Z9registersB5cxx11, 28
_Z9registersB5cxx11:
	.space	28
	.text
	.align	2
	.global	_Z12get_registerB5cxx11j
	.syntax unified
	.arm
	.fpu vfp
	.type	_Z12get_registerB5cxx11j, %function
_Z12get_registerB5cxx11j:
	.fnstart
.LFB2684:
	@ args = 0, pretend = 0, frame = 8
	@ frame_needed = 1, uses_anonymous_args = 0
	push	{fp, lr}
	.save {fp, lr}
	.setfp fp, sp, #4
	add	fp, sp, #4
	.pad #8
	sub	sp, sp, #8
	str	r0, [fp, #-8]
	str	r1, [fp, #-12]
	sub	r3, fp, #12
	mov	r1, r3
	ldr	r0, .L111
	bl	_ZNSt13unordered_mapIjNSt7__cxx1112basic_stringIcSt11char_traitsIcESaIcEEESt4hashIjESt8equal_toIjESaISt4pairIKjS5_EEEixERSB_
	mov	r3, r0
	mov	r1, r3
	ldr	r0, [fp, #-8]
	bl	_ZNSt7__cxx1112basic_stringIcSt11char_traitsIcESaIcEEC1ERKS4_
	ldr	r0, [fp, #-8]
	sub	sp, fp, #4
	@ sp needed
	pop	{fp, pc}
.L112:
	.align	2
.L111:
	.word	_Z9registersB5cxx11
	.fnend
	.size	_Z12get_registerB5cxx11j, .-_Z12get_registerB5cxx11j
	.section	.text._ZSt7forwardIiEOT_RNSt16remove_referenceIS0_E4typeE,"axG",%progbits,_ZSt7forwardIiEOT_RNSt16remove_referenceIS0_E4typeE,comdat
	.align	2
	.weak	_ZSt7forwardIiEOT_RNSt16remove_referenceIS0_E4typeE
	.syntax unified
	.arm
	.fpu vfp
	.type	_ZSt7forwardIiEOT_RNSt16remove_referenceIS0_E4typeE, %function
_ZSt7forwardIiEOT_RNSt16remove_referenceIS0_E4typeE:
	.fnstart
.LFB2690:
	@ args = 0, pretend = 0, frame = 8
	@ frame_needed = 1, uses_anonymous_args = 0
	@ link register save eliminated.
	str	fp, [sp, #-4]!
	add	fp, sp, #0
	sub	sp, sp, #12
	str	r0, [fp, #-8]
	ldr	r3, [fp, #-8]
	mov	r0, r3
	add	sp, fp, #0
	@ sp needed
	ldr	fp, [sp], #4
	bx	lr
	.cantunwind
	.fnend
	.size	_ZSt7forwardIiEOT_RNSt16remove_referenceIS0_E4typeE, .-_ZSt7forwardIiEOT_RNSt16remove_referenceIS0_E4typeE
	.section	.text._ZNSt4pairIKjNSt7__cxx1112basic_stringIcSt11char_traitsIcESaIcEEEEC1IiRA4_KcLb1EEEOT_OT0_,"axG",%progbits,_ZNSt4pairIKjNSt7__cxx1112basic_stringIcSt11char_traitsIcESaIcEEEEC1IiRA4_KcLb1EEEOT_OT0_,comdat
	.align	2
	.weak	_ZNSt4pairIKjNSt7__cxx1112basic_stringIcSt11char_traitsIcESaIcEEEEC1IiRA4_KcLb1EEEOT_OT0_
	.syntax unified
	.arm
	.fpu vfp
	.type	_ZNSt4pairIKjNSt7__cxx1112basic_stringIcSt11char_traitsIcESaIcEEEEC1IiRA4_KcLb1EEEOT_OT0_, %function
_ZNSt4pairIKjNSt7__cxx1112basic_stringIcSt11char_traitsIcESaIcEEEEC1IiRA4_KcLb1EEEOT_OT0_:
	.fnstart
.LFB2692:
	@ args = 0, pretend = 0, frame = 24
	@ frame_needed = 1, uses_anonymous_args = 0
	push	{r4, r5, fp, lr}
	.save {r4, r5, fp, lr}
	.setfp fp, sp, #12
	add	fp, sp, #12
	.pad #24
	sub	sp, sp, #24
	str	r0, [fp, #-24]
	str	r1, [fp, #-28]
	str	r2, [fp, #-32]
	ldr	r0, [fp, #-28]
	bl	_ZSt7forwardIiEOT_RNSt16remove_referenceIS0_E4typeE
	mov	r3, r0
	ldr	r3, [r3]
	mov	r2, r3
	ldr	r3, [fp, #-24]
	str	r2, [r3]
	ldr	r3, [fp, #-24]
	add	r4, r3, #4
	ldr	r0, [fp, #-32]
	bl	_ZSt7forwardIRA4_KcEOT_RNSt16remove_referenceIS3_E4typeE
	mov	r5, r0
	sub	r3, fp, #16
	mov	r0, r3
	bl	_ZNSaIcEC1Ev
	sub	r3, fp, #16
	mov	r2, r3
	mov	r1, r5
	mov	r0, r4
.LEHB27:
	bl	_ZNSt7__cxx1112basic_stringIcSt11char_traitsIcESaIcEEC1EPKcRKS3_
.LEHE27:
	sub	r3, fp, #16
	mov	r0, r3
	bl	_ZNSaIcED1Ev
	ldr	r3, [fp, #-24]
	b	.L119
.L118:
	sub	r3, fp, #16
	mov	r0, r3
	bl	_ZNSaIcED1Ev
.LEHB28:
	bl	__cxa_end_cleanup
.LEHE28:
.L119:
	mov	r0, r3
	sub	sp, fp, #12
	@ sp needed
	pop	{r4, r5, fp, pc}
	.personality	__gxx_personality_v0
	.handlerdata
.LLSDA2692:
	.byte	0xff
	.byte	0xff
	.byte	0x1
	.uleb128 .LLSDACSE2692-.LLSDACSB2692
.LLSDACSB2692:
	.uleb128 .LEHB27-.LFB2692
	.uleb128 .LEHE27-.LEHB27
	.uleb128 .L118-.LFB2692
	.uleb128 0
	.uleb128 .LEHB28-.LFB2692
	.uleb128 .LEHE28-.LEHB28
	.uleb128 0
	.uleb128 0
.LLSDACSE2692:
	.section	.text._ZNSt4pairIKjNSt7__cxx1112basic_stringIcSt11char_traitsIcESaIcEEEEC1IiRA4_KcLb1EEEOT_OT0_,"axG",%progbits,_ZNSt4pairIKjNSt7__cxx1112basic_stringIcSt11char_traitsIcESaIcEEEEC1IiRA4_KcLb1EEEOT_OT0_,comdat
	.fnend
	.size	_ZNSt4pairIKjNSt7__cxx1112basic_stringIcSt11char_traitsIcESaIcEEEEC1IiRA4_KcLb1EEEOT_OT0_, .-_ZNSt4pairIKjNSt7__cxx1112basic_stringIcSt11char_traitsIcESaIcEEEEC1IiRA4_KcLb1EEEOT_OT0_
	.global	_Z10shift_typeB5cxx11
	.bss
	.align	2
	.type	_Z10shift_typeB5cxx11, %object
	.size	_Z10shift_typeB5cxx11, 28
_Z10shift_typeB5cxx11:
	.space	28
	.section	.rodata
	.align	2
.LC8:
	.ascii	",\000"
	.align	2
.LC9:
	.ascii	" #\000"
	.text
	.align	2
	.global	_Z5shiftB5cxx11j
	.syntax unified
	.arm
	.fpu vfp
	.type	_Z5shiftB5cxx11j, %function
_Z5shiftB5cxx11j:
	.fnstart
.LFB2693:
	@ args = 0, pretend = 0, frame = 272
	@ frame_needed = 1, uses_anonymous_args = 0
	push	{fp, lr}
	.save {fp, lr}
	.setfp fp, sp, #4
	add	fp, sp, #4
	.pad #272
	sub	sp, sp, #272
	str	r0, [fp, #-272]
	str	r1, [fp, #-276]
	ldr	r3, [fp, #-276]
	and	r3, r3, #1
	str	r3, [fp, #-8]
	ldr	r3, [fp, #-276]
	lsr	r3, r3, #3
	and	r3, r3, #1
	str	r3, [fp, #-12]
	ldr	r3, [fp, #-276]
	lsr	r3, r3, #1
	and	r3, r3, #3
	str	r3, [fp, #-216]
	sub	r3, fp, #216
	mov	r1, r3
	ldr	r0, .L143
.LEHB29:
	bl	_ZNSt13unordered_mapIjNSt7__cxx1112basic_stringIcSt11char_traitsIcESaIcEEESt4hashIjESt8equal_toIjESaISt4pairIKjS5_EEEixERSB_
	mov	r2, r0
	sub	r3, fp, #240
	mov	r1, r2
	mov	r0, r3
	bl	_ZNSt7__cxx1112basic_stringIcSt11char_traitsIcESaIcEEC1ERKS4_
.LEHE29:
	sub	r3, fp, #264
	mov	r0, r3
	bl	_ZNSt7__cxx1112basic_stringIcSt11char_traitsIcESaIcEEC1Ev
	ldr	r3, [fp, #-8]
	cmp	r3, #1
	bne	.L121
	ldr	r3, [fp, #-12]
	cmp	r3, #0
	bne	.L121
	sub	r3, fp, #164
	sub	r2, fp, #240
	ldr	r1, .L143+4
	mov	r0, r3
.LEHB30:
	bl	_ZStplIcSt11char_traitsIcESaIcEENSt7__cxx1112basic_stringIT_T0_T1_EEPKS5_RKS8_
.LEHE30:
	sub	r3, fp, #188
	sub	r1, fp, #164
	ldr	r2, .L143+8
	mov	r0, r3
.LEHB31:
	bl	_ZStplIcSt11char_traitsIcESaIcEENSt7__cxx1112basic_stringIT_T0_T1_EEOS8_PKS5_
.LEHE31:
	ldr	r3, [fp, #-276]
	lsr	r3, r3, #4
	and	r2, r3, #15
	sub	r3, fp, #140
	mov	r1, r2
	mov	r0, r3
.LEHB32:
	bl	_Z12get_registerB5cxx11j
.LEHE32:
	sub	r3, fp, #212
	sub	r2, fp, #140
	sub	r1, fp, #188
	mov	r0, r3
.LEHB33:
	bl	_ZStplIcSt11char_traitsIcESaIcEENSt7__cxx1112basic_stringIT_T0_T1_EEOS8_S9_
.LEHE33:
	sub	r2, fp, #212
	sub	r3, fp, #264
	mov	r1, r2
	mov	r0, r3
	bl	_ZNSt7__cxx1112basic_stringIcSt11char_traitsIcESaIcEEaSEOS4_
	sub	r3, fp, #212
	mov	r0, r3
	bl	_ZNSt7__cxx1112basic_stringIcSt11char_traitsIcESaIcEED1Ev
	sub	r3, fp, #140
	mov	r0, r3
	bl	_ZNSt7__cxx1112basic_stringIcSt11char_traitsIcESaIcEED1Ev
	sub	r3, fp, #188
	mov	r0, r3
	bl	_ZNSt7__cxx1112basic_stringIcSt11char_traitsIcESaIcEED1Ev
	sub	r3, fp, #164
	mov	r0, r3
	bl	_ZNSt7__cxx1112basic_stringIcSt11char_traitsIcESaIcEED1Ev
	b	.L122
.L121:
	ldr	r3, [fp, #-276]
	lsr	r3, r3, #3
	and	r3, r3, #31
	str	r3, [fp, #-16]
	ldr	r3, [fp, #-16]
	cmp	r3, #0
	bne	.L123
	sub	r3, fp, #116
	mov	r0, r3
	bl	_ZNSaIcEC1Ev
	sub	r3, fp, #116
	mov	r2, r3
	ldr	r1, .L143+12
	ldr	r0, [fp, #-272]
.LEHB34:
	bl	_ZNSt7__cxx1112basic_stringIcSt11char_traitsIcESaIcEEC1EPKcRKS3_
.LEHE34:
	sub	r3, fp, #116
	mov	r0, r3
	bl	_ZNSaIcED1Ev
	b	.L124
.L123:
	sub	r3, fp, #64
	sub	r2, fp, #240
	ldr	r1, .L143+4
	mov	r0, r3
.LEHB35:
	bl	_ZStplIcSt11char_traitsIcESaIcEENSt7__cxx1112basic_stringIT_T0_T1_EEPKS5_RKS8_
.LEHE35:
	sub	r3, fp, #88
	sub	r1, fp, #64
	ldr	r2, .L143+16
	mov	r0, r3
.LEHB36:
	bl	_ZStplIcSt11char_traitsIcESaIcEENSt7__cxx1112basic_stringIT_T0_T1_EEOS8_PKS5_
.LEHE36:
	sub	r3, fp, #40
	ldr	r1, [fp, #-16]
	mov	r0, r3
.LEHB37:
	bl	_ZNSt7__cxx119to_stringEj
.LEHE37:
	sub	r3, fp, #112
	sub	r2, fp, #40
	sub	r1, fp, #88
	mov	r0, r3
.LEHB38:
	bl	_ZStplIcSt11char_traitsIcESaIcEENSt7__cxx1112basic_stringIT_T0_T1_EEOS8_S9_
.LEHE38:
	sub	r2, fp, #112
	sub	r3, fp, #264
	mov	r1, r2
	mov	r0, r3
	bl	_ZNSt7__cxx1112basic_stringIcSt11char_traitsIcESaIcEEaSEOS4_
	sub	r3, fp, #112
	mov	r0, r3
	bl	_ZNSt7__cxx1112basic_stringIcSt11char_traitsIcESaIcEED1Ev
	sub	r3, fp, #40
	mov	r0, r3
	bl	_ZNSt7__cxx1112basic_stringIcSt11char_traitsIcESaIcEED1Ev
	sub	r3, fp, #88
	mov	r0, r3
	bl	_ZNSt7__cxx1112basic_stringIcSt11char_traitsIcESaIcEED1Ev
	sub	r3, fp, #64
	mov	r0, r3
	bl	_ZNSt7__cxx1112basic_stringIcSt11char_traitsIcESaIcEED1Ev
.L122:
	sub	r3, fp, #264
	mov	r1, r3
	ldr	r0, [fp, #-272]
	bl	_ZNSt7__cxx1112basic_stringIcSt11char_traitsIcESaIcEEC1EOS4_
.L124:
	sub	r3, fp, #264
	mov	r0, r3
	bl	_ZNSt7__cxx1112basic_stringIcSt11char_traitsIcESaIcEED1Ev
	sub	r3, fp, #240
	mov	r0, r3
	bl	_ZNSt7__cxx1112basic_stringIcSt11char_traitsIcESaIcEED1Ev
	b	.L142
.L137:
	sub	r3, fp, #140
	mov	r0, r3
	bl	_ZNSt7__cxx1112basic_stringIcSt11char_traitsIcESaIcEED1Ev
	b	.L127
.L136:
.L127:
	sub	r3, fp, #188
	mov	r0, r3
	bl	_ZNSt7__cxx1112basic_stringIcSt11char_traitsIcESaIcEED1Ev
	b	.L128
.L135:
.L128:
	sub	r3, fp, #164
	mov	r0, r3
	bl	_ZNSt7__cxx1112basic_stringIcSt11char_traitsIcESaIcEED1Ev
	b	.L129
.L138:
	sub	r3, fp, #116
	mov	r0, r3
	bl	_ZNSaIcED1Ev
	b	.L129
.L141:
	sub	r3, fp, #40
	mov	r0, r3
	bl	_ZNSt7__cxx1112basic_stringIcSt11char_traitsIcESaIcEED1Ev
	b	.L132
.L140:
.L132:
	sub	r3, fp, #88
	mov	r0, r3
	bl	_ZNSt7__cxx1112basic_stringIcSt11char_traitsIcESaIcEED1Ev
	b	.L133
.L139:
.L133:
	sub	r3, fp, #64
	mov	r0, r3
	bl	_ZNSt7__cxx1112basic_stringIcSt11char_traitsIcESaIcEED1Ev
	b	.L129
.L134:
.L129:
	sub	r3, fp, #264
	mov	r0, r3
	bl	_ZNSt7__cxx1112basic_stringIcSt11char_traitsIcESaIcEED1Ev
	sub	r3, fp, #240
	mov	r0, r3
	bl	_ZNSt7__cxx1112basic_stringIcSt11char_traitsIcESaIcEED1Ev
.LEHB39:
	bl	__cxa_end_cleanup
.LEHE39:
.L142:
	ldr	r0, [fp, #-272]
	sub	sp, fp, #4
	@ sp needed
	pop	{fp, pc}
.L144:
	.align	2
.L143:
	.word	_Z10shift_typeB5cxx11
	.word	.LC8
	.word	.LC3
	.word	.LC7
	.word	.LC9
	.personality	__gxx_personality_v0
	.handlerdata
.LLSDA2693:
	.byte	0xff
	.byte	0xff
	.byte	0x1
	.uleb128 .LLSDACSE2693-.LLSDACSB2693
.LLSDACSB2693:
	.uleb128 .LEHB29-.LFB2693
	.uleb128 .LEHE29-.LEHB29
	.uleb128 0
	.uleb128 0
	.uleb128 .LEHB30-.LFB2693
	.uleb128 .LEHE30-.LEHB30
	.uleb128 .L134-.LFB2693
	.uleb128 0
	.uleb128 .LEHB31-.LFB2693
	.uleb128 .LEHE31-.LEHB31
	.uleb128 .L135-.LFB2693
	.uleb128 0
	.uleb128 .LEHB32-.LFB2693
	.uleb128 .LEHE32-.LEHB32
	.uleb128 .L136-.LFB2693
	.uleb128 0
	.uleb128 .LEHB33-.LFB2693
	.uleb128 .LEHE33-.LEHB33
	.uleb128 .L137-.LFB2693
	.uleb128 0
	.uleb128 .LEHB34-.LFB2693
	.uleb128 .LEHE34-.LEHB34
	.uleb128 .L138-.LFB2693
	.uleb128 0
	.uleb128 .LEHB35-.LFB2693
	.uleb128 .LEHE35-.LEHB35
	.uleb128 .L134-.LFB2693
	.uleb128 0
	.uleb128 .LEHB36-.LFB2693
	.uleb128 .LEHE36-.LEHB36
	.uleb128 .L139-.LFB2693
	.uleb128 0
	.uleb128 .LEHB37-.LFB2693
	.uleb128 .LEHE37-.LEHB37
	.uleb128 .L140-.LFB2693
	.uleb128 0
	.uleb128 .LEHB38-.LFB2693
	.uleb128 .LEHE38-.LEHB38
	.uleb128 .L141-.LFB2693
	.uleb128 0
	.uleb128 .LEHB39-.LFB2693
	.uleb128 .LEHE39-.LEHB39
	.uleb128 0
	.uleb128 0
.LLSDACSE2693:
	.text
	.fnend
	.size	_Z5shiftB5cxx11j, .-_Z5shiftB5cxx11j
	.section	.rodata
	.align	2
.LC10:
	.ascii	",#\000"
	.align	2
.LC11:
	.ascii	",R\000"
	.align	2
.LC12:
	.ascii	"S \000"
	.align	2
.LC13:
	.ascii	"MOV\000"
	.align	2
.LC14:
	.ascii	"MVN\000"
	.align	2
.LC15:
	.ascii	"CMP\000"
	.align	2
.LC16:
	.ascii	"CMN\000"
	.align	2
.LC17:
	.ascii	"TEQ\000"
	.align	2
.LC18:
	.ascii	"TST\000"
	.text
	.align	2
	.global	_Z22handle_data_processingB5cxx11j
	.syntax unified
	.arm
	.fpu vfp
	.type	_Z22handle_data_processingB5cxx11j, %function
_Z22handle_data_processingB5cxx11j:
	.fnstart
.LFB2697:
	@ args = 0, pretend = 0, frame = 816
	@ frame_needed = 1, uses_anonymous_args = 0
	push	{r4, fp, lr}
	.save {r4, fp, lr}
	.setfp fp, sp, #8
	add	fp, sp, #8
	.pad #820
	sub	sp, sp, #820
	str	r0, [fp, #-824]
	str	r1, [fp, #-828]
	sub	r3, fp, #700
	ldr	r1, [fp, #-828]
	mov	r0, r3
.LEHB40:
	bl	_Z18get_condition_codeB5cxx11j
.LEHE40:
	ldr	r0, [fp, #-824]
	bl	_ZNSt7__cxx1112basic_stringIcSt11char_traitsIcESaIcEEC1Ev
	sub	r3, fp, #724
	mov	r2, #21
	ldr	r1, [fp, #-828]
	mov	r0, r3
.LEHB41:
	bl	_Z11get_op_codeB5cxx11jj
.LEHE41:
	ldr	r3, [fp, #-828]
	lsr	r3, r3, #25
	and	r3, r3, #1
	str	r3, [fp, #-16]
	ldr	r3, [fp, #-828]
	lsr	r3, r3, #20
	and	r3, r3, #1
	str	r3, [fp, #-20]
	ldr	r3, [fp, #-828]
	lsr	r3, r3, #16
	and	r3, r3, #15
	str	r3, [fp, #-24]
	ldr	r3, [fp, #-828]
	lsr	r3, r3, #12
	and	r3, r3, #15
	str	r3, [fp, #-28]
	ldr	r3, [fp, #-828]
	lsl	r3, r3, #20
	lsr	r3, r3, #20
	str	r3, [fp, #-32]
	ldr	r3, [fp, #-828]
	lsr	r3, r3, #4
	uxtb	r3, r3
	str	r3, [fp, #-36]
	ldr	r3, [fp, #-828]
	and	r3, r3, #15
	str	r3, [fp, #-40]
	ldr	r3, [fp, #-828]
	lsr	r3, r3, #8
	and	r3, r3, #15
	str	r3, [fp, #-44]
	ldr	r3, [fp, #-828]
	uxtb	r3, r3
	str	r3, [fp, #-48]
	sub	r3, fp, #676
	ldr	r1, [fp, #-48]
	mov	r0, r3
.LEHB42:
	bl	_ZNSt7__cxx119to_stringEj
.LEHE42:
	sub	r3, fp, #748
	sub	r2, fp, #676
	ldr	r1, .L222
	mov	r0, r3
.LEHB43:
	bl	_ZStplIcSt11char_traitsIcESaIcEENSt7__cxx1112basic_stringIT_T0_T1_EEPKS5_OS8_
.LEHE43:
	sub	r3, fp, #676
	mov	r0, r3
	bl	_ZNSt7__cxx1112basic_stringIcSt11char_traitsIcESaIcEED1Ev
	sub	r3, fp, #652
	ldr	r1, [fp, #-40]
	mov	r0, r3
.LEHB44:
	bl	_ZNSt7__cxx119to_stringEj
.LEHE44:
	sub	r3, fp, #772
	sub	r2, fp, #652
	ldr	r1, .L222+4
	mov	r0, r3
.LEHB45:
	bl	_ZStplIcSt11char_traitsIcESaIcEENSt7__cxx1112basic_stringIT_T0_T1_EEPKS5_OS8_
.LEHE45:
	sub	r3, fp, #652
	mov	r0, r3
	bl	_ZNSt7__cxx1112basic_stringIcSt11char_traitsIcESaIcEED1Ev
	ldr	r3, [fp, #-16]
	cmp	r3, #1
	bne	.L146
	sub	r3, fp, #748
	b	.L147
.L146:
	sub	r3, fp, #772
.L147:
	sub	r2, fp, #796
	mov	r1, r3
	mov	r0, r2
.LEHB46:
	bl	_ZNSt7__cxx1112basic_stringIcSt11char_traitsIcESaIcEEC1ERKS4_
.LEHE46:
	ldr	r3, [fp, #-20]
	cmp	r3, #1
	bne	.L148
	ldr	r4, .L222+8
	b	.L149
.L148:
	ldr	r4, .L222+12
.L149:
	sub	r3, fp, #628
	mov	r0, r3
	bl	_ZNSaIcEC1Ev
	sub	r2, fp, #628
	sub	r3, fp, #820
	mov	r1, r4
	mov	r0, r3
.LEHB47:
	bl	_ZNSt7__cxx1112basic_stringIcSt11char_traitsIcESaIcEEC1EPKcRKS3_
.LEHE47:
	sub	r3, fp, #628
	mov	r0, r3
	bl	_ZNSaIcED1Ev
	sub	r3, fp, #724
	ldr	r1, .L222+16
	mov	r0, r3
	bl	_ZSteqIcSt11char_traitsIcESaIcEEbRKNSt7__cxx1112basic_stringIT_T0_T1_EEPKS5_
	mov	r3, r0
	cmp	r3, #0
	bne	.L150
	sub	r3, fp, #724
	ldr	r1, .L222+20
	mov	r0, r3
	bl	_ZSteqIcSt11char_traitsIcESaIcEEbRKNSt7__cxx1112basic_stringIT_T0_T1_EEPKS5_
	mov	r3, r0
	cmp	r3, #0
	beq	.L151
.L150:
	mov	r3, #1
	b	.L152
.L151:
	mov	r3, #0
.L152:
	cmp	r3, #0
	beq	.L153
	sub	r3, fp, #528
	sub	r2, fp, #700
	sub	r1, fp, #724
	mov	r0, r3
.LEHB48:
	bl	_ZStplIcSt11char_traitsIcESaIcEENSt7__cxx1112basic_stringIT_T0_T1_EERKS8_SA_
.LEHE48:
	sub	r3, fp, #552
	sub	r2, fp, #820
	sub	r1, fp, #528
	mov	r0, r3
.LEHB49:
	bl	_ZStplIcSt11char_traitsIcESaIcEENSt7__cxx1112basic_stringIT_T0_T1_EEOS8_RKS8_
.LEHE49:
	sub	r3, fp, #504
	ldr	r1, [fp, #-24]
	mov	r0, r3
.LEHB50:
	bl	_Z12get_registerB5cxx11j
.LEHE50:
	sub	r3, fp, #576
	sub	r2, fp, #504
	sub	r1, fp, #552
	mov	r0, r3
.LEHB51:
	bl	_ZStplIcSt11char_traitsIcESaIcEENSt7__cxx1112basic_stringIT_T0_T1_EEOS8_S9_
.LEHE51:
	sub	r3, fp, #600
	sub	r2, fp, #796
	sub	r1, fp, #576
	mov	r0, r3
.LEHB52:
	bl	_ZStplIcSt11char_traitsIcESaIcEENSt7__cxx1112basic_stringIT_T0_T1_EEOS8_RKS8_
.LEHE52:
	sub	r3, fp, #480
	ldr	r1, [fp, #-32]
	mov	r0, r3
.LEHB53:
	bl	_Z5shiftB5cxx11j
.LEHE53:
	sub	r3, fp, #624
	sub	r2, fp, #480
	sub	r1, fp, #600
	mov	r0, r3
.LEHB54:
	bl	_ZStplIcSt11char_traitsIcESaIcEENSt7__cxx1112basic_stringIT_T0_T1_EEOS8_S9_
.LEHE54:
	sub	r3, fp, #624
	mov	r1, r3
	ldr	r0, [fp, #-824]
	bl	_ZNSt7__cxx1112basic_stringIcSt11char_traitsIcESaIcEEaSEOS4_
	sub	r3, fp, #624
	mov	r0, r3
	bl	_ZNSt7__cxx1112basic_stringIcSt11char_traitsIcESaIcEED1Ev
	sub	r3, fp, #480
	mov	r0, r3
	bl	_ZNSt7__cxx1112basic_stringIcSt11char_traitsIcESaIcEED1Ev
	sub	r3, fp, #600
	mov	r0, r3
	bl	_ZNSt7__cxx1112basic_stringIcSt11char_traitsIcESaIcEED1Ev
	sub	r3, fp, #576
	mov	r0, r3
	bl	_ZNSt7__cxx1112basic_stringIcSt11char_traitsIcESaIcEED1Ev
	sub	r3, fp, #504
	mov	r0, r3
	bl	_ZNSt7__cxx1112basic_stringIcSt11char_traitsIcESaIcEED1Ev
	sub	r3, fp, #552
	mov	r0, r3
	bl	_ZNSt7__cxx1112basic_stringIcSt11char_traitsIcESaIcEED1Ev
	sub	r3, fp, #528
	mov	r0, r3
	bl	_ZNSt7__cxx1112basic_stringIcSt11char_traitsIcESaIcEED1Ev
	b	.L221
.L153:
	sub	r3, fp, #724
	ldr	r1, .L222+24
	mov	r0, r3
	bl	_ZSteqIcSt11char_traitsIcESaIcEEbRKNSt7__cxx1112basic_stringIT_T0_T1_EEPKS5_
	mov	r3, r0
	cmp	r3, #0
	bne	.L155
	sub	r3, fp, #724
	ldr	r1, .L222+28
	mov	r0, r3
	bl	_ZSteqIcSt11char_traitsIcESaIcEEbRKNSt7__cxx1112basic_stringIT_T0_T1_EEPKS5_
	mov	r3, r0
	cmp	r3, #0
	bne	.L155
	sub	r3, fp, #724
	ldr	r1, .L222+32
	mov	r0, r3
	bl	_ZSteqIcSt11char_traitsIcESaIcEEbRKNSt7__cxx1112basic_stringIT_T0_T1_EEPKS5_
	mov	r3, r0
	cmp	r3, #0
	bne	.L155
	sub	r3, fp, #724
	ldr	r1, .L222+36
	mov	r0, r3
	bl	_ZSteqIcSt11char_traitsIcESaIcEEbRKNSt7__cxx1112basic_stringIT_T0_T1_EEPKS5_
	mov	r3, r0
	cmp	r3, #0
	beq	.L156
.L155:
	mov	r3, #1
	b	.L157
.L156:
	mov	r3, #0
.L157:
	cmp	r3, #0
	beq	.L158
	sub	r3, fp, #360
	sub	r2, fp, #700
	sub	r1, fp, #724
	mov	r0, r3
.LEHB55:
	bl	_ZStplIcSt11char_traitsIcESaIcEENSt7__cxx1112basic_stringIT_T0_T1_EERKS8_SA_
.LEHE55:
	sub	r3, fp, #384
	sub	r2, fp, #820
	sub	r1, fp, #360
	mov	r0, r3
.LEHB56:
	bl	_ZStplIcSt11char_traitsIcESaIcEENSt7__cxx1112basic_stringIT_T0_T1_EEOS8_RKS8_
.LEHE56:
	sub	r3, fp, #336
	ldr	r1, [fp, #-24]
	mov	r0, r3
.LEHB57:
	bl	_Z12get_registerB5cxx11j
.LEHE57:
	sub	r3, fp, #408
	sub	r2, fp, #336
	sub	r1, fp, #384
	mov	r0, r3
.LEHB58:
	bl	_ZStplIcSt11char_traitsIcESaIcEENSt7__cxx1112basic_stringIT_T0_T1_EEOS8_S9_
.LEHE58:
	sub	r3, fp, #432
	sub	r2, fp, #796
	sub	r1, fp, #408
	mov	r0, r3
.LEHB59:
	bl	_ZStplIcSt11char_traitsIcESaIcEENSt7__cxx1112basic_stringIT_T0_T1_EEOS8_RKS8_
.LEHE59:
	sub	r3, fp, #312
	ldr	r1, [fp, #-32]
	mov	r0, r3
.LEHB60:
	bl	_Z5shiftB5cxx11j
.LEHE60:
	sub	r3, fp, #456
	sub	r2, fp, #312
	sub	r1, fp, #432
	mov	r0, r3
.LEHB61:
	bl	_ZStplIcSt11char_traitsIcESaIcEENSt7__cxx1112basic_stringIT_T0_T1_EEOS8_S9_
.LEHE61:
	sub	r3, fp, #456
	mov	r1, r3
	ldr	r0, [fp, #-824]
	bl	_ZNSt7__cxx1112basic_stringIcSt11char_traitsIcESaIcEEaSEOS4_
	sub	r3, fp, #456
	mov	r0, r3
	bl	_ZNSt7__cxx1112basic_stringIcSt11char_traitsIcESaIcEED1Ev
	sub	r3, fp, #312
	mov	r0, r3
	bl	_ZNSt7__cxx1112basic_stringIcSt11char_traitsIcESaIcEED1Ev
	sub	r3, fp, #432
	mov	r0, r3
	bl	_ZNSt7__cxx1112basic_stringIcSt11char_traitsIcESaIcEED1Ev
	sub	r3, fp, #408
	mov	r0, r3
	bl	_ZNSt7__cxx1112basic_stringIcSt11char_traitsIcESaIcEED1Ev
	sub	r3, fp, #336
	mov	r0, r3
	bl	_ZNSt7__cxx1112basic_stringIcSt11char_traitsIcESaIcEED1Ev
	sub	r3, fp, #384
	mov	r0, r3
	bl	_ZNSt7__cxx1112basic_stringIcSt11char_traitsIcESaIcEED1Ev
	sub	r3, fp, #360
	mov	r0, r3
	bl	_ZNSt7__cxx1112basic_stringIcSt11char_traitsIcESaIcEED1Ev
	b	.L221
.L158:
	sub	r3, fp, #144
	sub	r2, fp, #700
	sub	r1, fp, #724
	mov	r0, r3
.LEHB62:
	bl	_ZStplIcSt11char_traitsIcESaIcEENSt7__cxx1112basic_stringIT_T0_T1_EERKS8_SA_
.LEHE62:
	sub	r3, fp, #168
	sub	r2, fp, #820
	sub	r1, fp, #144
	mov	r0, r3
.LEHB63:
	bl	_ZStplIcSt11char_traitsIcESaIcEENSt7__cxx1112basic_stringIT_T0_T1_EEOS8_RKS8_
.LEHE63:
	sub	r3, fp, #120
	ldr	r1, [fp, #-28]
	mov	r0, r3
.LEHB64:
	bl	_Z12get_registerB5cxx11j
.LEHE64:
	sub	r3, fp, #192
	sub	r2, fp, #120
	sub	r1, fp, #168
	mov	r0, r3
.LEHB65:
	bl	_ZStplIcSt11char_traitsIcESaIcEENSt7__cxx1112basic_stringIT_T0_T1_EEOS8_S9_
.LEHE65:
	sub	r3, fp, #216
	sub	r1, fp, #192
	ldr	r2, .L222+40
	mov	r0, r3
.LEHB66:
	bl	_ZStplIcSt11char_traitsIcESaIcEENSt7__cxx1112basic_stringIT_T0_T1_EEOS8_PKS5_
.LEHE66:
	sub	r3, fp, #96
	ldr	r1, [fp, #-24]
	mov	r0, r3
.LEHB67:
	bl	_Z12get_registerB5cxx11j
.LEHE67:
	sub	r3, fp, #240
	sub	r2, fp, #96
	sub	r1, fp, #216
	mov	r0, r3
.LEHB68:
	bl	_ZStplIcSt11char_traitsIcESaIcEENSt7__cxx1112basic_stringIT_T0_T1_EEOS8_S9_
.LEHE68:
	sub	r3, fp, #264
	sub	r2, fp, #796
	sub	r1, fp, #240
	mov	r0, r3
.LEHB69:
	bl	_ZStplIcSt11char_traitsIcESaIcEENSt7__cxx1112basic_stringIT_T0_T1_EEOS8_RKS8_
.LEHE69:
	sub	r3, fp, #72
	ldr	r1, [fp, #-32]
	mov	r0, r3
.LEHB70:
	bl	_Z5shiftB5cxx11j
.LEHE70:
	sub	r3, fp, #288
	sub	r2, fp, #72
	sub	r1, fp, #264
	mov	r0, r3
.LEHB71:
	bl	_ZStplIcSt11char_traitsIcESaIcEENSt7__cxx1112basic_stringIT_T0_T1_EEOS8_S9_
.LEHE71:
	sub	r3, fp, #288
	mov	r1, r3
	ldr	r0, [fp, #-824]
	bl	_ZNSt7__cxx1112basic_stringIcSt11char_traitsIcESaIcEEaSEOS4_
	sub	r3, fp, #288
	mov	r0, r3
	bl	_ZNSt7__cxx1112basic_stringIcSt11char_traitsIcESaIcEED1Ev
	sub	r3, fp, #72
	mov	r0, r3
	bl	_ZNSt7__cxx1112basic_stringIcSt11char_traitsIcESaIcEED1Ev
	sub	r3, fp, #264
	mov	r0, r3
	bl	_ZNSt7__cxx1112basic_stringIcSt11char_traitsIcESaIcEED1Ev
	sub	r3, fp, #240
	mov	r0, r3
	bl	_ZNSt7__cxx1112basic_stringIcSt11char_traitsIcESaIcEED1Ev
	sub	r3, fp, #96
	mov	r0, r3
	bl	_ZNSt7__cxx1112basic_stringIcSt11char_traitsIcESaIcEED1Ev
	sub	r3, fp, #216
	mov	r0, r3
	bl	_ZNSt7__cxx1112basic_stringIcSt11char_traitsIcESaIcEED1Ev
	sub	r3, fp, #192
	mov	r0, r3
	bl	_ZNSt7__cxx1112basic_stringIcSt11char_traitsIcESaIcEED1Ev
	sub	r3, fp, #120
	mov	r0, r3
	bl	_ZNSt7__cxx1112basic_stringIcSt11char_traitsIcESaIcEED1Ev
	sub	r3, fp, #168
	mov	r0, r3
	bl	_ZNSt7__cxx1112basic_stringIcSt11char_traitsIcESaIcEED1Ev
	sub	r3, fp, #144
	mov	r0, r3
	bl	_ZNSt7__cxx1112basic_stringIcSt11char_traitsIcESaIcEED1Ev
.L221:
	nop
	sub	r3, fp, #820
	mov	r0, r3
	bl	_ZNSt7__cxx1112basic_stringIcSt11char_traitsIcESaIcEED1Ev
	sub	r3, fp, #796
	mov	r0, r3
	bl	_ZNSt7__cxx1112basic_stringIcSt11char_traitsIcESaIcEED1Ev
	sub	r3, fp, #772
	mov	r0, r3
	bl	_ZNSt7__cxx1112basic_stringIcSt11char_traitsIcESaIcEED1Ev
	sub	r3, fp, #748
	mov	r0, r3
	bl	_ZNSt7__cxx1112basic_stringIcSt11char_traitsIcESaIcEED1Ev
	sub	r3, fp, #724
	mov	r0, r3
	bl	_ZNSt7__cxx1112basic_stringIcSt11char_traitsIcESaIcEED1Ev
	sub	r3, fp, #700
	mov	r0, r3
	bl	_ZNSt7__cxx1112basic_stringIcSt11char_traitsIcESaIcEED1Ev
	b	.L220
.L192:
	sub	r3, fp, #676
	mov	r0, r3
	bl	_ZNSt7__cxx1112basic_stringIcSt11char_traitsIcESaIcEED1Ev
	b	.L161
.L194:
	sub	r3, fp, #652
	mov	r0, r3
	bl	_ZNSt7__cxx1112basic_stringIcSt11char_traitsIcESaIcEED1Ev
	b	.L163
.L196:
	sub	r3, fp, #628
	mov	r0, r3
	bl	_ZNSaIcED1Ev
	b	.L165
.L203:
	sub	r3, fp, #480
	mov	r0, r3
	bl	_ZNSt7__cxx1112basic_stringIcSt11char_traitsIcESaIcEED1Ev
	b	.L167
.L202:
.L167:
	sub	r3, fp, #600
	mov	r0, r3
	bl	_ZNSt7__cxx1112basic_stringIcSt11char_traitsIcESaIcEED1Ev
	b	.L168
.L201:
.L168:
	sub	r3, fp, #576
	mov	r0, r3
	bl	_ZNSt7__cxx1112basic_stringIcSt11char_traitsIcESaIcEED1Ev
	b	.L169
.L200:
.L169:
	sub	r3, fp, #504
	mov	r0, r3
	bl	_ZNSt7__cxx1112basic_stringIcSt11char_traitsIcESaIcEED1Ev
	b	.L170
.L199:
.L170:
	sub	r3, fp, #552
	mov	r0, r3
	bl	_ZNSt7__cxx1112basic_stringIcSt11char_traitsIcESaIcEED1Ev
	b	.L171
.L198:
.L171:
	sub	r3, fp, #528
	mov	r0, r3
	bl	_ZNSt7__cxx1112basic_stringIcSt11char_traitsIcESaIcEED1Ev
	b	.L172
.L209:
	sub	r3, fp, #312
	mov	r0, r3
	bl	_ZNSt7__cxx1112basic_stringIcSt11char_traitsIcESaIcEED1Ev
	b	.L174
.L208:
.L174:
	sub	r3, fp, #432
	mov	r0, r3
	bl	_ZNSt7__cxx1112basic_stringIcSt11char_traitsIcESaIcEED1Ev
	b	.L175
.L207:
.L175:
	sub	r3, fp, #408
	mov	r0, r3
	bl	_ZNSt7__cxx1112basic_stringIcSt11char_traitsIcESaIcEED1Ev
	b	.L176
.L206:
.L176:
	sub	r3, fp, #336
	mov	r0, r3
	bl	_ZNSt7__cxx1112basic_stringIcSt11char_traitsIcESaIcEED1Ev
	b	.L177
.L205:
.L177:
	sub	r3, fp, #384
	mov	r0, r3
	bl	_ZNSt7__cxx1112basic_stringIcSt11char_traitsIcESaIcEED1Ev
	b	.L178
.L204:
.L178:
	sub	r3, fp, #360
	mov	r0, r3
	bl	_ZNSt7__cxx1112basic_stringIcSt11char_traitsIcESaIcEED1Ev
	b	.L172
.L218:
	sub	r3, fp, #72
	mov	r0, r3
	bl	_ZNSt7__cxx1112basic_stringIcSt11char_traitsIcESaIcEED1Ev
	b	.L180
.L217:
.L180:
	sub	r3, fp, #264
	mov	r0, r3
	bl	_ZNSt7__cxx1112basic_stringIcSt11char_traitsIcESaIcEED1Ev
	b	.L181
.L216:
.L181:
	sub	r3, fp, #240
	mov	r0, r3
	bl	_ZNSt7__cxx1112basic_stringIcSt11char_traitsIcESaIcEED1Ev
	b	.L182
.L215:
.L182:
	sub	r3, fp, #96
	mov	r0, r3
	bl	_ZNSt7__cxx1112basic_stringIcSt11char_traitsIcESaIcEED1Ev
	b	.L183
.L214:
.L183:
	sub	r3, fp, #216
	mov	r0, r3
	bl	_ZNSt7__cxx1112basic_stringIcSt11char_traitsIcESaIcEED1Ev
	b	.L184
.L213:
.L184:
	sub	r3, fp, #192
	mov	r0, r3
	bl	_ZNSt7__cxx1112basic_stringIcSt11char_traitsIcESaIcEED1Ev
	b	.L185
.L212:
.L185:
	sub	r3, fp, #120
	mov	r0, r3
	bl	_ZNSt7__cxx1112basic_stringIcSt11char_traitsIcESaIcEED1Ev
	b	.L186
.L211:
.L186:
	sub	r3, fp, #168
	mov	r0, r3
	bl	_ZNSt7__cxx1112basic_stringIcSt11char_traitsIcESaIcEED1Ev
	b	.L187
.L210:
.L187:
	sub	r3, fp, #144
	mov	r0, r3
	bl	_ZNSt7__cxx1112basic_stringIcSt11char_traitsIcESaIcEED1Ev
	b	.L172
.L197:
.L172:
	sub	r3, fp, #820
	mov	r0, r3
	bl	_ZNSt7__cxx1112basic_stringIcSt11char_traitsIcESaIcEED1Ev
.L165:
	sub	r3, fp, #796
	mov	r0, r3
	bl	_ZNSt7__cxx1112basic_stringIcSt11char_traitsIcESaIcEED1Ev
	b	.L188
.L195:
.L188:
	sub	r3, fp, #772
	mov	r0, r3
	bl	_ZNSt7__cxx1112basic_stringIcSt11char_traitsIcESaIcEED1Ev
	b	.L163
.L193:
.L163:
	sub	r3, fp, #748
	mov	r0, r3
	bl	_ZNSt7__cxx1112basic_stringIcSt11char_traitsIcESaIcEED1Ev
	b	.L161
.L191:
.L161:
	sub	r3, fp, #724
	mov	r0, r3
	bl	_ZNSt7__cxx1112basic_stringIcSt11char_traitsIcESaIcEED1Ev
	b	.L189
.L190:
.L189:
	ldr	r0, [fp, #-824]
	bl	_ZNSt7__cxx1112basic_stringIcSt11char_traitsIcESaIcEED1Ev
	sub	r3, fp, #700
	mov	r0, r3
	bl	_ZNSt7__cxx1112basic_stringIcSt11char_traitsIcESaIcEED1Ev
.LEHB72:
	bl	__cxa_end_cleanup
.LEHE72:
.L220:
	ldr	r0, [fp, #-824]
	sub	sp, fp, #8
	@ sp needed
	pop	{r4, fp, pc}
.L223:
	.align	2
.L222:
	.word	.LC10
	.word	.LC11
	.word	.LC12
	.word	.LC3
	.word	.LC13
	.word	.LC14
	.word	.LC15
	.word	.LC16
	.word	.LC17
	.word	.LC18
	.word	.LC8
	.personality	__gxx_personality_v0
	.handlerdata
.LLSDA2697:
	.byte	0xff
	.byte	0xff
	.byte	0x1
	.uleb128 .LLSDACSE2697-.LLSDACSB2697
.LLSDACSB2697:
	.uleb128 .LEHB40-.LFB2697
	.uleb128 .LEHE40-.LEHB40
	.uleb128 0
	.uleb128 0
	.uleb128 .LEHB41-.LFB2697
	.uleb128 .LEHE41-.LEHB41
	.uleb128 .L190-.LFB2697
	.uleb128 0
	.uleb128 .LEHB42-.LFB2697
	.uleb128 .LEHE42-.LEHB42
	.uleb128 .L191-.LFB2697
	.uleb128 0
	.uleb128 .LEHB43-.LFB2697
	.uleb128 .LEHE43-.LEHB43
	.uleb128 .L192-.LFB2697
	.uleb128 0
	.uleb128 .LEHB44-.LFB2697
	.uleb128 .LEHE44-.LEHB44
	.uleb128 .L193-.LFB2697
	.uleb128 0
	.uleb128 .LEHB45-.LFB2697
	.uleb128 .LEHE45-.LEHB45
	.uleb128 .L194-.LFB2697
	.uleb128 0
	.uleb128 .LEHB46-.LFB2697
	.uleb128 .LEHE46-.LEHB46
	.uleb128 .L195-.LFB2697
	.uleb128 0
	.uleb128 .LEHB47-.LFB2697
	.uleb128 .LEHE47-.LEHB47
	.uleb128 .L196-.LFB2697
	.uleb128 0
	.uleb128 .LEHB48-.LFB2697
	.uleb128 .LEHE48-.LEHB48
	.uleb128 .L197-.LFB2697
	.uleb128 0
	.uleb128 .LEHB49-.LFB2697
	.uleb128 .LEHE49-.LEHB49
	.uleb128 .L198-.LFB2697
	.uleb128 0
	.uleb128 .LEHB50-.LFB2697
	.uleb128 .LEHE50-.LEHB50
	.uleb128 .L199-.LFB2697
	.uleb128 0
	.uleb128 .LEHB51-.LFB2697
	.uleb128 .LEHE51-.LEHB51
	.uleb128 .L200-.LFB2697
	.uleb128 0
	.uleb128 .LEHB52-.LFB2697
	.uleb128 .LEHE52-.LEHB52
	.uleb128 .L201-.LFB2697
	.uleb128 0
	.uleb128 .LEHB53-.LFB2697
	.uleb128 .LEHE53-.LEHB53
	.uleb128 .L202-.LFB2697
	.uleb128 0
	.uleb128 .LEHB54-.LFB2697
	.uleb128 .LEHE54-.LEHB54
	.uleb128 .L203-.LFB2697
	.uleb128 0
	.uleb128 .LEHB55-.LFB2697
	.uleb128 .LEHE55-.LEHB55
	.uleb128 .L197-.LFB2697
	.uleb128 0
	.uleb128 .LEHB56-.LFB2697
	.uleb128 .LEHE56-.LEHB56
	.uleb128 .L204-.LFB2697
	.uleb128 0
	.uleb128 .LEHB57-.LFB2697
	.uleb128 .LEHE57-.LEHB57
	.uleb128 .L205-.LFB2697
	.uleb128 0
	.uleb128 .LEHB58-.LFB2697
	.uleb128 .LEHE58-.LEHB58
	.uleb128 .L206-.LFB2697
	.uleb128 0
	.uleb128 .LEHB59-.LFB2697
	.uleb128 .LEHE59-.LEHB59
	.uleb128 .L207-.LFB2697
	.uleb128 0
	.uleb128 .LEHB60-.LFB2697
	.uleb128 .LEHE60-.LEHB60
	.uleb128 .L208-.LFB2697
	.uleb128 0
	.uleb128 .LEHB61-.LFB2697
	.uleb128 .LEHE61-.LEHB61
	.uleb128 .L209-.LFB2697
	.uleb128 0
	.uleb128 .LEHB62-.LFB2697
	.uleb128 .LEHE62-.LEHB62
	.uleb128 .L197-.LFB2697
	.uleb128 0
	.uleb128 .LEHB63-.LFB2697
	.uleb128 .LEHE63-.LEHB63
	.uleb128 .L210-.LFB2697
	.uleb128 0
	.uleb128 .LEHB64-.LFB2697
	.uleb128 .LEHE64-.LEHB64
	.uleb128 .L211-.LFB2697
	.uleb128 0
	.uleb128 .LEHB65-.LFB2697
	.uleb128 .LEHE65-.LEHB65
	.uleb128 .L212-.LFB2697
	.uleb128 0
	.uleb128 .LEHB66-.LFB2697
	.uleb128 .LEHE66-.LEHB66
	.uleb128 .L213-.LFB2697
	.uleb128 0
	.uleb128 .LEHB67-.LFB2697
	.uleb128 .LEHE67-.LEHB67
	.uleb128 .L214-.LFB2697
	.uleb128 0
	.uleb128 .LEHB68-.LFB2697
	.uleb128 .LEHE68-.LEHB68
	.uleb128 .L215-.LFB2697
	.uleb128 0
	.uleb128 .LEHB69-.LFB2697
	.uleb128 .LEHE69-.LEHB69
	.uleb128 .L216-.LFB2697
	.uleb128 0
	.uleb128 .LEHB70-.LFB2697
	.uleb128 .LEHE70-.LEHB70
	.uleb128 .L217-.LFB2697
	.uleb128 0
	.uleb128 .LEHB71-.LFB2697
	.uleb128 .LEHE71-.LEHB71
	.uleb128 .L218-.LFB2697
	.uleb128 0
	.uleb128 .LEHB72-.LFB2697
	.uleb128 .LEHE72-.LEHB72
	.uleb128 0
	.uleb128 0
.LLSDACSE2697:
	.text
	.fnend
	.size	_Z22handle_data_processingB5cxx11j, .-_Z22handle_data_processingB5cxx11j
	.section	.rodata
	.align	2
.LC19:
	.ascii	"S\000"
	.align	2
.LC20:
	.ascii	"MLA\000"
	.align	2
.LC21:
	.ascii	"MUL\000"
	.text
	.align	2
	.global	_Z15handle_multiplyB5cxx11j
	.syntax unified
	.arm
	.fpu vfp
	.type	_Z15handle_multiplyB5cxx11j, %function
_Z15handle_multiplyB5cxx11j:
	.fnstart
.LFB2698:
	@ args = 0, pretend = 0, frame = 688
	@ frame_needed = 1, uses_anonymous_args = 0
	push	{r4, fp, lr}
	.save {r4, fp, lr}
	.setfp fp, sp, #8
	add	fp, sp, #8
	.pad #692
	sub	sp, sp, #692
	str	r0, [fp, #-696]
	str	r1, [fp, #-700]
	ldr	r2, [fp, #-700]
	sub	r3, fp, #664
	mov	r1, r2
	mov	r0, r3
.LEHB73:
	bl	_Z18get_condition_codeB5cxx11j
.LEHE73:
	ldr	r0, [fp, #-696]
	bl	_ZNSt7__cxx1112basic_stringIcSt11char_traitsIcESaIcEEC1Ev
	ldr	r3, [fp, #-700]
	lsr	r3, r3, #21
	and	r3, r3, #1
	str	r3, [fp, #-16]
	ldr	r3, [fp, #-700]
	lsr	r3, r3, #20
	and	r3, r3, #1
	str	r3, [fp, #-20]
	ldr	r3, [fp, #-700]
	lsr	r3, r3, #16
	and	r3, r3, #15
	str	r3, [fp, #-24]
	ldr	r3, [fp, #-700]
	lsr	r3, r3, #12
	and	r3, r3, #15
	str	r3, [fp, #-28]
	ldr	r3, [fp, #-700]
	lsr	r3, r3, #8
	and	r3, r3, #15
	str	r3, [fp, #-32]
	ldr	r3, [fp, #-700]
	and	r3, r3, #15
	str	r3, [fp, #-36]
	ldr	r3, [fp, #-20]
	cmp	r3, #1
	bne	.L225
	ldr	r4, .L284
	b	.L226
.L225:
	ldr	r4, .L284+4
.L226:
	sub	r3, fp, #640
	mov	r0, r3
	bl	_ZNSaIcEC1Ev
	sub	r2, fp, #640
	sub	r3, fp, #688
	mov	r1, r4
	mov	r0, r3
.LEHB74:
	bl	_ZNSt7__cxx1112basic_stringIcSt11char_traitsIcESaIcEEC1EPKcRKS3_
.LEHE74:
	sub	r3, fp, #640
	mov	r0, r3
	bl	_ZNSaIcED1Ev
	ldr	r3, [fp, #-16]
	cmp	r3, #0
	beq	.L227
	sub	r3, fp, #420
	sub	r2, fp, #664
	ldr	r1, .L284+8
	mov	r0, r3
.LEHB75:
	bl	_ZStplIcSt11char_traitsIcESaIcEENSt7__cxx1112basic_stringIT_T0_T1_EEPKS5_RKS8_
.LEHE75:
	sub	r3, fp, #444
	sub	r2, fp, #688
	sub	r1, fp, #420
	mov	r0, r3
.LEHB76:
	bl	_ZStplIcSt11char_traitsIcESaIcEENSt7__cxx1112basic_stringIT_T0_T1_EEOS8_RKS8_
.LEHE76:
	sub	r3, fp, #468
	sub	r1, fp, #444
	mov	r2, #32
	mov	r0, r3
.LEHB77:
	bl	_ZStplIcSt11char_traitsIcESaIcEENSt7__cxx1112basic_stringIT_T0_T1_EEOS8_S5_
.LEHE77:
	sub	r3, fp, #396
	ldr	r1, [fp, #-24]
	mov	r0, r3
.LEHB78:
	bl	_Z12get_registerB5cxx11j
.LEHE78:
	sub	r3, fp, #492
	sub	r2, fp, #396
	sub	r1, fp, #468
	mov	r0, r3
.LEHB79:
	bl	_ZStplIcSt11char_traitsIcESaIcEENSt7__cxx1112basic_stringIT_T0_T1_EEOS8_S9_
.LEHE79:
	sub	r3, fp, #516
	sub	r1, fp, #492
	mov	r2, #44
	mov	r0, r3
.LEHB80:
	bl	_ZStplIcSt11char_traitsIcESaIcEENSt7__cxx1112basic_stringIT_T0_T1_EEOS8_S5_
.LEHE80:
	sub	r3, fp, #372
	ldr	r1, [fp, #-36]
	mov	r0, r3
.LEHB81:
	bl	_Z12get_registerB5cxx11j
.LEHE81:
	sub	r3, fp, #540
	sub	r2, fp, #372
	sub	r1, fp, #516
	mov	r0, r3
.LEHB82:
	bl	_ZStplIcSt11char_traitsIcESaIcEENSt7__cxx1112basic_stringIT_T0_T1_EEOS8_S9_
.LEHE82:
	sub	r3, fp, #564
	sub	r1, fp, #540
	mov	r2, #44
	mov	r0, r3
.LEHB83:
	bl	_ZStplIcSt11char_traitsIcESaIcEENSt7__cxx1112basic_stringIT_T0_T1_EEOS8_S5_
.LEHE83:
	sub	r3, fp, #348
	ldr	r1, [fp, #-32]
	mov	r0, r3
.LEHB84:
	bl	_Z12get_registerB5cxx11j
.LEHE84:
	sub	r3, fp, #588
	sub	r2, fp, #348
	sub	r1, fp, #564
	mov	r0, r3
.LEHB85:
	bl	_ZStplIcSt11char_traitsIcESaIcEENSt7__cxx1112basic_stringIT_T0_T1_EEOS8_S9_
.LEHE85:
	sub	r3, fp, #612
	sub	r1, fp, #588
	mov	r2, #44
	mov	r0, r3
.LEHB86:
	bl	_ZStplIcSt11char_traitsIcESaIcEENSt7__cxx1112basic_stringIT_T0_T1_EEOS8_S5_
.LEHE86:
	sub	r3, fp, #324
	ldr	r1, [fp, #-28]
	mov	r0, r3
.LEHB87:
	bl	_Z12get_registerB5cxx11j
.LEHE87:
	sub	r3, fp, #636
	sub	r2, fp, #324
	sub	r1, fp, #612
	mov	r0, r3
.LEHB88:
	bl	_ZStplIcSt11char_traitsIcESaIcEENSt7__cxx1112basic_stringIT_T0_T1_EEOS8_S9_
.LEHE88:
	sub	r3, fp, #636
	mov	r1, r3
	ldr	r0, [fp, #-696]
	bl	_ZNSt7__cxx1112basic_stringIcSt11char_traitsIcESaIcEEaSEOS4_
	sub	r3, fp, #636
	mov	r0, r3
	bl	_ZNSt7__cxx1112basic_stringIcSt11char_traitsIcESaIcEED1Ev
	sub	r3, fp, #324
	mov	r0, r3
	bl	_ZNSt7__cxx1112basic_stringIcSt11char_traitsIcESaIcEED1Ev
	sub	r3, fp, #612
	mov	r0, r3
	bl	_ZNSt7__cxx1112basic_stringIcSt11char_traitsIcESaIcEED1Ev
	sub	r3, fp, #588
	mov	r0, r3
	bl	_ZNSt7__cxx1112basic_stringIcSt11char_traitsIcESaIcEED1Ev
	sub	r3, fp, #348
	mov	r0, r3
	bl	_ZNSt7__cxx1112basic_stringIcSt11char_traitsIcESaIcEED1Ev
	sub	r3, fp, #564
	mov	r0, r3
	bl	_ZNSt7__cxx1112basic_stringIcSt11char_traitsIcESaIcEED1Ev
	sub	r3, fp, #540
	mov	r0, r3
	bl	_ZNSt7__cxx1112basic_stringIcSt11char_traitsIcESaIcEED1Ev
	sub	r3, fp, #372
	mov	r0, r3
	bl	_ZNSt7__cxx1112basic_stringIcSt11char_traitsIcESaIcEED1Ev
	sub	r3, fp, #516
	mov	r0, r3
	bl	_ZNSt7__cxx1112basic_stringIcSt11char_traitsIcESaIcEED1Ev
	sub	r3, fp, #492
	mov	r0, r3
	bl	_ZNSt7__cxx1112basic_stringIcSt11char_traitsIcESaIcEED1Ev
	sub	r3, fp, #396
	mov	r0, r3
	bl	_ZNSt7__cxx1112basic_stringIcSt11char_traitsIcESaIcEED1Ev
	sub	r3, fp, #468
	mov	r0, r3
	bl	_ZNSt7__cxx1112basic_stringIcSt11char_traitsIcESaIcEED1Ev
	sub	r3, fp, #444
	mov	r0, r3
	bl	_ZNSt7__cxx1112basic_stringIcSt11char_traitsIcESaIcEED1Ev
	sub	r3, fp, #420
	mov	r0, r3
	bl	_ZNSt7__cxx1112basic_stringIcSt11char_traitsIcESaIcEED1Ev
	b	.L283
.L227:
	sub	r3, fp, #132
	sub	r2, fp, #664
	ldr	r1, .L284+12
	mov	r0, r3
.LEHB89:
	bl	_ZStplIcSt11char_traitsIcESaIcEENSt7__cxx1112basic_stringIT_T0_T1_EEPKS5_RKS8_
.LEHE89:
	sub	r3, fp, #156
	sub	r2, fp, #688
	sub	r1, fp, #132
	mov	r0, r3
.LEHB90:
	bl	_ZStplIcSt11char_traitsIcESaIcEENSt7__cxx1112basic_stringIT_T0_T1_EEOS8_RKS8_
.LEHE90:
	sub	r3, fp, #180
	sub	r1, fp, #156
	mov	r2, #32
	mov	r0, r3
.LEHB91:
	bl	_ZStplIcSt11char_traitsIcESaIcEENSt7__cxx1112basic_stringIT_T0_T1_EEOS8_S5_
.LEHE91:
	sub	r3, fp, #108
	ldr	r1, [fp, #-24]
	mov	r0, r3
.LEHB92:
	bl	_Z12get_registerB5cxx11j
.LEHE92:
	sub	r3, fp, #204
	sub	r2, fp, #108
	sub	r1, fp, #180
	mov	r0, r3
.LEHB93:
	bl	_ZStplIcSt11char_traitsIcESaIcEENSt7__cxx1112basic_stringIT_T0_T1_EEOS8_S9_
.LEHE93:
	sub	r3, fp, #228
	sub	r1, fp, #204
	mov	r2, #44
	mov	r0, r3
.LEHB94:
	bl	_ZStplIcSt11char_traitsIcESaIcEENSt7__cxx1112basic_stringIT_T0_T1_EEOS8_S5_
.LEHE94:
	sub	r3, fp, #84
	ldr	r1, [fp, #-36]
	mov	r0, r3
.LEHB95:
	bl	_Z12get_registerB5cxx11j
.LEHE95:
	sub	r3, fp, #252
	sub	r2, fp, #84
	sub	r1, fp, #228
	mov	r0, r3
.LEHB96:
	bl	_ZStplIcSt11char_traitsIcESaIcEENSt7__cxx1112basic_stringIT_T0_T1_EEOS8_S9_
.LEHE96:
	sub	r3, fp, #276
	sub	r1, fp, #252
	mov	r2, #44
	mov	r0, r3
.LEHB97:
	bl	_ZStplIcSt11char_traitsIcESaIcEENSt7__cxx1112basic_stringIT_T0_T1_EEOS8_S5_
.LEHE97:
	sub	r3, fp, #60
	ldr	r1, [fp, #-32]
	mov	r0, r3
.LEHB98:
	bl	_Z12get_registerB5cxx11j
.LEHE98:
	sub	r3, fp, #300
	sub	r2, fp, #60
	sub	r1, fp, #276
	mov	r0, r3
.LEHB99:
	bl	_ZStplIcSt11char_traitsIcESaIcEENSt7__cxx1112basic_stringIT_T0_T1_EEOS8_S9_
.LEHE99:
	sub	r3, fp, #300
	mov	r1, r3
	ldr	r0, [fp, #-696]
	bl	_ZNSt7__cxx1112basic_stringIcSt11char_traitsIcESaIcEEaSEOS4_
	sub	r3, fp, #300
	mov	r0, r3
	bl	_ZNSt7__cxx1112basic_stringIcSt11char_traitsIcESaIcEED1Ev
	sub	r3, fp, #60
	mov	r0, r3
	bl	_ZNSt7__cxx1112basic_stringIcSt11char_traitsIcESaIcEED1Ev
	sub	r3, fp, #276
	mov	r0, r3
	bl	_ZNSt7__cxx1112basic_stringIcSt11char_traitsIcESaIcEED1Ev
	sub	r3, fp, #252
	mov	r0, r3
	bl	_ZNSt7__cxx1112basic_stringIcSt11char_traitsIcESaIcEED1Ev
	sub	r3, fp, #84
	mov	r0, r3
	bl	_ZNSt7__cxx1112basic_stringIcSt11char_traitsIcESaIcEED1Ev
	sub	r3, fp, #228
	mov	r0, r3
	bl	_ZNSt7__cxx1112basic_stringIcSt11char_traitsIcESaIcEED1Ev
	sub	r3, fp, #204
	mov	r0, r3
	bl	_ZNSt7__cxx1112basic_stringIcSt11char_traitsIcESaIcEED1Ev
	sub	r3, fp, #108
	mov	r0, r3
	bl	_ZNSt7__cxx1112basic_stringIcSt11char_traitsIcESaIcEED1Ev
	sub	r3, fp, #180
	mov	r0, r3
	bl	_ZNSt7__cxx1112basic_stringIcSt11char_traitsIcESaIcEED1Ev
	sub	r3, fp, #156
	mov	r0, r3
	bl	_ZNSt7__cxx1112basic_stringIcSt11char_traitsIcESaIcEED1Ev
	sub	r3, fp, #132
	mov	r0, r3
	bl	_ZNSt7__cxx1112basic_stringIcSt11char_traitsIcESaIcEED1Ev
.L283:
	nop
	sub	r3, fp, #688
	mov	r0, r3
	bl	_ZNSt7__cxx1112basic_stringIcSt11char_traitsIcESaIcEED1Ev
	sub	r3, fp, #664
	mov	r0, r3
	bl	_ZNSt7__cxx1112basic_stringIcSt11char_traitsIcESaIcEED1Ev
	b	.L282
.L256:
	sub	r3, fp, #640
	mov	r0, r3
	bl	_ZNSaIcED1Ev
	b	.L231
.L270:
	sub	r3, fp, #324
	mov	r0, r3
	bl	_ZNSt7__cxx1112basic_stringIcSt11char_traitsIcESaIcEED1Ev
	b	.L233
.L269:
.L233:
	sub	r3, fp, #612
	mov	r0, r3
	bl	_ZNSt7__cxx1112basic_stringIcSt11char_traitsIcESaIcEED1Ev
	b	.L234
.L268:
.L234:
	sub	r3, fp, #588
	mov	r0, r3
	bl	_ZNSt7__cxx1112basic_stringIcSt11char_traitsIcESaIcEED1Ev
	b	.L235
.L267:
.L235:
	sub	r3, fp, #348
	mov	r0, r3
	bl	_ZNSt7__cxx1112basic_stringIcSt11char_traitsIcESaIcEED1Ev
	b	.L236
.L266:
.L236:
	sub	r3, fp, #564
	mov	r0, r3
	bl	_ZNSt7__cxx1112basic_stringIcSt11char_traitsIcESaIcEED1Ev
	b	.L237
.L265:
.L237:
	sub	r3, fp, #540
	mov	r0, r3
	bl	_ZNSt7__cxx1112basic_stringIcSt11char_traitsIcESaIcEED1Ev
	b	.L238
.L264:
.L238:
	sub	r3, fp, #372
	mov	r0, r3
	bl	_ZNSt7__cxx1112basic_stringIcSt11char_traitsIcESaIcEED1Ev
	b	.L239
.L263:
.L239:
	sub	r3, fp, #516
	mov	r0, r3
	bl	_ZNSt7__cxx1112basic_stringIcSt11char_traitsIcESaIcEED1Ev
	b	.L240
.L262:
.L240:
	sub	r3, fp, #492
	mov	r0, r3
	bl	_ZNSt7__cxx1112basic_stringIcSt11char_traitsIcESaIcEED1Ev
	b	.L241
.L261:
.L241:
	sub	r3, fp, #396
	mov	r0, r3
	bl	_ZNSt7__cxx1112basic_stringIcSt11char_traitsIcESaIcEED1Ev
	b	.L242
.L260:
.L242:
	sub	r3, fp, #468
	mov	r0, r3
	bl	_ZNSt7__cxx1112basic_stringIcSt11char_traitsIcESaIcEED1Ev
	b	.L243
.L259:
.L243:
	sub	r3, fp, #444
	mov	r0, r3
	bl	_ZNSt7__cxx1112basic_stringIcSt11char_traitsIcESaIcEED1Ev
	b	.L244
.L258:
.L244:
	sub	r3, fp, #420
	mov	r0, r3
	bl	_ZNSt7__cxx1112basic_stringIcSt11char_traitsIcESaIcEED1Ev
	b	.L245
.L280:
	sub	r3, fp, #60
	mov	r0, r3
	bl	_ZNSt7__cxx1112basic_stringIcSt11char_traitsIcESaIcEED1Ev
	b	.L247
.L279:
.L247:
	sub	r3, fp, #276
	mov	r0, r3
	bl	_ZNSt7__cxx1112basic_stringIcSt11char_traitsIcESaIcEED1Ev
	b	.L248
.L278:
.L248:
	sub	r3, fp, #252
	mov	r0, r3
	bl	_ZNSt7__cxx1112basic_stringIcSt11char_traitsIcESaIcEED1Ev
	b	.L249
.L277:
.L249:
	sub	r3, fp, #84
	mov	r0, r3
	bl	_ZNSt7__cxx1112basic_stringIcSt11char_traitsIcESaIcEED1Ev
	b	.L250
.L276:
.L250:
	sub	r3, fp, #228
	mov	r0, r3
	bl	_ZNSt7__cxx1112basic_stringIcSt11char_traitsIcESaIcEED1Ev
	b	.L251
.L275:
.L251:
	sub	r3, fp, #204
	mov	r0, r3
	bl	_ZNSt7__cxx1112basic_stringIcSt11char_traitsIcESaIcEED1Ev
	b	.L252
.L274:
.L252:
	sub	r3, fp, #108
	mov	r0, r3
	bl	_ZNSt7__cxx1112basic_stringIcSt11char_traitsIcESaIcEED1Ev
	b	.L253
.L273:
.L253:
	sub	r3, fp, #180
	mov	r0, r3
	bl	_ZNSt7__cxx1112basic_stringIcSt11char_traitsIcESaIcEED1Ev
	b	.L254
.L272:
.L254:
	sub	r3, fp, #156
	mov	r0, r3
	bl	_ZNSt7__cxx1112basic_stringIcSt11char_traitsIcESaIcEED1Ev
	b	.L255
.L271:
.L255:
	sub	r3, fp, #132
	mov	r0, r3
	bl	_ZNSt7__cxx1112basic_stringIcSt11char_traitsIcESaIcEED1Ev
	b	.L245
.L257:
.L245:
	sub	r3, fp, #688
	mov	r0, r3
	bl	_ZNSt7__cxx1112basic_stringIcSt11char_traitsIcESaIcEED1Ev
.L231:
	ldr	r0, [fp, #-696]
	bl	_ZNSt7__cxx1112basic_stringIcSt11char_traitsIcESaIcEED1Ev
	sub	r3, fp, #664
	mov	r0, r3
	bl	_ZNSt7__cxx1112basic_stringIcSt11char_traitsIcESaIcEED1Ev
.LEHB100:
	bl	__cxa_end_cleanup
.LEHE100:
.L282:
	ldr	r0, [fp, #-696]
	sub	sp, fp, #8
	@ sp needed
	pop	{r4, fp, pc}
.L285:
	.align	2
.L284:
	.word	.LC19
	.word	.LC7
	.word	.LC20
	.word	.LC21
	.personality	__gxx_personality_v0
	.handlerdata
.LLSDA2698:
	.byte	0xff
	.byte	0xff
	.byte	0x1
	.uleb128 .LLSDACSE2698-.LLSDACSB2698
.LLSDACSB2698:
	.uleb128 .LEHB73-.LFB2698
	.uleb128 .LEHE73-.LEHB73
	.uleb128 0
	.uleb128 0
	.uleb128 .LEHB74-.LFB2698
	.uleb128 .LEHE74-.LEHB74
	.uleb128 .L256-.LFB2698
	.uleb128 0
	.uleb128 .LEHB75-.LFB2698
	.uleb128 .LEHE75-.LEHB75
	.uleb128 .L257-.LFB2698
	.uleb128 0
	.uleb128 .LEHB76-.LFB2698
	.uleb128 .LEHE76-.LEHB76
	.uleb128 .L258-.LFB2698
	.uleb128 0
	.uleb128 .LEHB77-.LFB2698
	.uleb128 .LEHE77-.LEHB77
	.uleb128 .L259-.LFB2698
	.uleb128 0
	.uleb128 .LEHB78-.LFB2698
	.uleb128 .LEHE78-.LEHB78
	.uleb128 .L260-.LFB2698
	.uleb128 0
	.uleb128 .LEHB79-.LFB2698
	.uleb128 .LEHE79-.LEHB79
	.uleb128 .L261-.LFB2698
	.uleb128 0
	.uleb128 .LEHB80-.LFB2698
	.uleb128 .LEHE80-.LEHB80
	.uleb128 .L262-.LFB2698
	.uleb128 0
	.uleb128 .LEHB81-.LFB2698
	.uleb128 .LEHE81-.LEHB81
	.uleb128 .L263-.LFB2698
	.uleb128 0
	.uleb128 .LEHB82-.LFB2698
	.uleb128 .LEHE82-.LEHB82
	.uleb128 .L264-.LFB2698
	.uleb128 0
	.uleb128 .LEHB83-.LFB2698
	.uleb128 .LEHE83-.LEHB83
	.uleb128 .L265-.LFB2698
	.uleb128 0
	.uleb128 .LEHB84-.LFB2698
	.uleb128 .LEHE84-.LEHB84
	.uleb128 .L266-.LFB2698
	.uleb128 0
	.uleb128 .LEHB85-.LFB2698
	.uleb128 .LEHE85-.LEHB85
	.uleb128 .L267-.LFB2698
	.uleb128 0
	.uleb128 .LEHB86-.LFB2698
	.uleb128 .LEHE86-.LEHB86
	.uleb128 .L268-.LFB2698
	.uleb128 0
	.uleb128 .LEHB87-.LFB2698
	.uleb128 .LEHE87-.LEHB87
	.uleb128 .L269-.LFB2698
	.uleb128 0
	.uleb128 .LEHB88-.LFB2698
	.uleb128 .LEHE88-.LEHB88
	.uleb128 .L270-.LFB2698
	.uleb128 0
	.uleb128 .LEHB89-.LFB2698
	.uleb128 .LEHE89-.LEHB89
	.uleb128 .L257-.LFB2698
	.uleb128 0
	.uleb128 .LEHB90-.LFB2698
	.uleb128 .LEHE90-.LEHB90
	.uleb128 .L271-.LFB2698
	.uleb128 0
	.uleb128 .LEHB91-.LFB2698
	.uleb128 .LEHE91-.LEHB91
	.uleb128 .L272-.LFB2698
	.uleb128 0
	.uleb128 .LEHB92-.LFB2698
	.uleb128 .LEHE92-.LEHB92
	.uleb128 .L273-.LFB2698
	.uleb128 0
	.uleb128 .LEHB93-.LFB2698
	.uleb128 .LEHE93-.LEHB93
	.uleb128 .L274-.LFB2698
	.uleb128 0
	.uleb128 .LEHB94-.LFB2698
	.uleb128 .LEHE94-.LEHB94
	.uleb128 .L275-.LFB2698
	.uleb128 0
	.uleb128 .LEHB95-.LFB2698
	.uleb128 .LEHE95-.LEHB95
	.uleb128 .L276-.LFB2698
	.uleb128 0
	.uleb128 .LEHB96-.LFB2698
	.uleb128 .LEHE96-.LEHB96
	.uleb128 .L277-.LFB2698
	.uleb128 0
	.uleb128 .LEHB97-.LFB2698
	.uleb128 .LEHE97-.LEHB97
	.uleb128 .L278-.LFB2698
	.uleb128 0
	.uleb128 .LEHB98-.LFB2698
	.uleb128 .LEHE98-.LEHB98
	.uleb128 .L279-.LFB2698
	.uleb128 0
	.uleb128 .LEHB99-.LFB2698
	.uleb128 .LEHE99-.LEHB99
	.uleb128 .L280-.LFB2698
	.uleb128 0
	.uleb128 .LEHB100-.LFB2698
	.uleb128 .LEHE100-.LEHB100
	.uleb128 0
	.uleb128 0
.LLSDACSE2698:
	.text
	.fnend
	.size	_Z15handle_multiplyB5cxx11j, .-_Z15handle_multiplyB5cxx11j
	.section	.rodata
	.align	2
.LC22:
	.ascii	"U\000"
	.align	2
.LC23:
	.ascii	"MLAL\000"
	.align	2
.LC24:
	.ascii	"MULL\000"
	.text
	.align	2
	.global	_Z20handle_multiply_longB5cxx11j
	.syntax unified
	.arm
	.fpu vfp
	.type	_Z20handle_multiply_longB5cxx11j, %function
_Z20handle_multiply_longB5cxx11j:
	.fnstart
.LFB2699:
	@ args = 0, pretend = 0, frame = 840
	@ frame_needed = 1, uses_anonymous_args = 0
	push	{r4, fp, lr}
	.save {r4, fp, lr}
	.setfp fp, sp, #8
	add	fp, sp, #8
	.pad #844
	sub	sp, sp, #844
	str	r0, [fp, #-848]
	str	r1, [fp, #-852]
	sub	r3, fp, #792
	ldr	r1, [fp, #-852]
	mov	r0, r3
.LEHB101:
	bl	_Z18get_condition_codeB5cxx11j
.LEHE101:
	ldr	r0, [fp, #-848]
	bl	_ZNSt7__cxx1112basic_stringIcSt11char_traitsIcESaIcEEC1Ev
	ldr	r3, [fp, #-852]
	lsr	r3, r3, #22
	and	r3, r3, #1
	str	r3, [fp, #-16]
	ldr	r3, [fp, #-852]
	lsr	r3, r3, #21
	and	r3, r3, #1
	str	r3, [fp, #-20]
	ldr	r3, [fp, #-852]
	lsr	r3, r3, #20
	and	r3, r3, #1
	str	r3, [fp, #-24]
	ldr	r3, [fp, #-852]
	lsr	r3, r3, #16
	and	r3, r3, #15
	str	r3, [fp, #-28]
	ldr	r3, [fp, #-852]
	lsr	r3, r3, #12
	and	r3, r3, #15
	str	r3, [fp, #-32]
	ldr	r3, [fp, #-852]
	lsr	r3, r3, #8
	and	r3, r3, #15
	str	r3, [fp, #-36]
	ldr	r3, [fp, #-852]
	and	r3, r3, #15
	str	r3, [fp, #-40]
	ldr	r3, [fp, #-24]
	cmp	r3, #1
	bne	.L287
	ldr	r4, .L361
	b	.L288
.L287:
	ldr	r4, .L361+4
.L288:
	sub	r3, fp, #768
	mov	r0, r3
	bl	_ZNSaIcEC1Ev
	sub	r2, fp, #768
	sub	r3, fp, #816
	mov	r1, r4
	mov	r0, r3
.LEHB102:
	bl	_ZNSt7__cxx1112basic_stringIcSt11char_traitsIcESaIcEEC1EPKcRKS3_
.LEHE102:
	sub	r3, fp, #768
	mov	r0, r3
	bl	_ZNSaIcED1Ev
	ldr	r3, [fp, #-16]
	cmp	r3, #1
	bne	.L289
	ldr	r4, .L361
	b	.L290
.L289:
	ldr	r4, .L361+8
.L290:
	sub	r3, fp, #764
	mov	r0, r3
	bl	_ZNSaIcEC1Ev
	sub	r2, fp, #764
	sub	r3, fp, #840
	mov	r1, r4
	mov	r0, r3
.LEHB103:
	bl	_ZNSt7__cxx1112basic_stringIcSt11char_traitsIcESaIcEEC1EPKcRKS3_
.LEHE103:
	sub	r3, fp, #764
	mov	r0, r3
	bl	_ZNSaIcED1Ev
	ldr	r3, [fp, #-20]
	cmp	r3, #0
	beq	.L291
	sub	r3, fp, #520
	sub	r1, fp, #840
	ldr	r2, .L361+12
	mov	r0, r3
.LEHB104:
	bl	_ZStplIcSt11char_traitsIcESaIcEENSt7__cxx1112basic_stringIT_T0_T1_EERKS8_PKS5_
.LEHE104:
	sub	r3, fp, #544
	sub	r2, fp, #792
	sub	r1, fp, #520
	mov	r0, r3
.LEHB105:
	bl	_ZStplIcSt11char_traitsIcESaIcEENSt7__cxx1112basic_stringIT_T0_T1_EEOS8_RKS8_
.LEHE105:
	sub	r3, fp, #568
	sub	r2, fp, #816
	sub	r1, fp, #544
	mov	r0, r3
.LEHB106:
	bl	_ZStplIcSt11char_traitsIcESaIcEENSt7__cxx1112basic_stringIT_T0_T1_EEOS8_RKS8_
.LEHE106:
	sub	r3, fp, #592
	sub	r1, fp, #568
	mov	r2, #32
	mov	r0, r3
.LEHB107:
	bl	_ZStplIcSt11char_traitsIcESaIcEENSt7__cxx1112basic_stringIT_T0_T1_EEOS8_S5_
.LEHE107:
	sub	r3, fp, #496
	ldr	r1, [fp, #-32]
	mov	r0, r3
.LEHB108:
	bl	_Z12get_registerB5cxx11j
.LEHE108:
	sub	r3, fp, #616
	sub	r2, fp, #496
	sub	r1, fp, #592
	mov	r0, r3
.LEHB109:
	bl	_ZStplIcSt11char_traitsIcESaIcEENSt7__cxx1112basic_stringIT_T0_T1_EEOS8_S9_
.LEHE109:
	sub	r3, fp, #640
	sub	r1, fp, #616
	mov	r2, #44
	mov	r0, r3
.LEHB110:
	bl	_ZStplIcSt11char_traitsIcESaIcEENSt7__cxx1112basic_stringIT_T0_T1_EEOS8_S5_
.LEHE110:
	sub	r3, fp, #472
	ldr	r1, [fp, #-28]
	mov	r0, r3
.LEHB111:
	bl	_Z12get_registerB5cxx11j
.LEHE111:
	sub	r3, fp, #664
	sub	r2, fp, #472
	sub	r1, fp, #640
	mov	r0, r3
.LEHB112:
	bl	_ZStplIcSt11char_traitsIcESaIcEENSt7__cxx1112basic_stringIT_T0_T1_EEOS8_S9_
.LEHE112:
	sub	r3, fp, #688
	sub	r1, fp, #664
	mov	r2, #44
	mov	r0, r3
.LEHB113:
	bl	_ZStplIcSt11char_traitsIcESaIcEENSt7__cxx1112basic_stringIT_T0_T1_EEOS8_S5_
.LEHE113:
	sub	r3, fp, #448
	ldr	r1, [fp, #-40]
	mov	r0, r3
.LEHB114:
	bl	_Z12get_registerB5cxx11j
.LEHE114:
	sub	r3, fp, #712
	sub	r2, fp, #448
	sub	r1, fp, #688
	mov	r0, r3
.LEHB115:
	bl	_ZStplIcSt11char_traitsIcESaIcEENSt7__cxx1112basic_stringIT_T0_T1_EEOS8_S9_
.LEHE115:
	sub	r3, fp, #736
	sub	r1, fp, #712
	mov	r2, #44
	mov	r0, r3
.LEHB116:
	bl	_ZStplIcSt11char_traitsIcESaIcEENSt7__cxx1112basic_stringIT_T0_T1_EEOS8_S5_
.LEHE116:
	sub	r3, fp, #424
	ldr	r1, [fp, #-36]
	mov	r0, r3
.LEHB117:
	bl	_Z12get_registerB5cxx11j
.LEHE117:
	sub	r3, fp, #760
	sub	r2, fp, #424
	sub	r1, fp, #736
	mov	r0, r3
.LEHB118:
	bl	_ZStplIcSt11char_traitsIcESaIcEENSt7__cxx1112basic_stringIT_T0_T1_EEOS8_S9_
.LEHE118:
	sub	r3, fp, #760
	mov	r1, r3
	ldr	r0, [fp, #-848]
	bl	_ZNSt7__cxx1112basic_stringIcSt11char_traitsIcESaIcEEaSEOS4_
	sub	r3, fp, #760
	mov	r0, r3
	bl	_ZNSt7__cxx1112basic_stringIcSt11char_traitsIcESaIcEED1Ev
	sub	r3, fp, #424
	mov	r0, r3
	bl	_ZNSt7__cxx1112basic_stringIcSt11char_traitsIcESaIcEED1Ev
	sub	r3, fp, #736
	mov	r0, r3
	bl	_ZNSt7__cxx1112basic_stringIcSt11char_traitsIcESaIcEED1Ev
	sub	r3, fp, #712
	mov	r0, r3
	bl	_ZNSt7__cxx1112basic_stringIcSt11char_traitsIcESaIcEED1Ev
	sub	r3, fp, #448
	mov	r0, r3
	bl	_ZNSt7__cxx1112basic_stringIcSt11char_traitsIcESaIcEED1Ev
	sub	r3, fp, #688
	mov	r0, r3
	bl	_ZNSt7__cxx1112basic_stringIcSt11char_traitsIcESaIcEED1Ev
	sub	r3, fp, #664
	mov	r0, r3
	bl	_ZNSt7__cxx1112basic_stringIcSt11char_traitsIcESaIcEED1Ev
	sub	r3, fp, #472
	mov	r0, r3
	bl	_ZNSt7__cxx1112basic_stringIcSt11char_traitsIcESaIcEED1Ev
	sub	r3, fp, #640
	mov	r0, r3
	bl	_ZNSt7__cxx1112basic_stringIcSt11char_traitsIcESaIcEED1Ev
	sub	r3, fp, #616
	mov	r0, r3
	bl	_ZNSt7__cxx1112basic_stringIcSt11char_traitsIcESaIcEED1Ev
	sub	r3, fp, #496
	mov	r0, r3
	bl	_ZNSt7__cxx1112basic_stringIcSt11char_traitsIcESaIcEED1Ev
	sub	r3, fp, #592
	mov	r0, r3
	bl	_ZNSt7__cxx1112basic_stringIcSt11char_traitsIcESaIcEED1Ev
	sub	r3, fp, #568
	mov	r0, r3
	bl	_ZNSt7__cxx1112basic_stringIcSt11char_traitsIcESaIcEED1Ev
	sub	r3, fp, #544
	mov	r0, r3
	bl	_ZNSt7__cxx1112basic_stringIcSt11char_traitsIcESaIcEED1Ev
	sub	r3, fp, #520
	mov	r0, r3
	bl	_ZNSt7__cxx1112basic_stringIcSt11char_traitsIcESaIcEED1Ev
	b	.L360
.L291:
	sub	r3, fp, #160
	sub	r1, fp, #840
	ldr	r2, .L361+16
	mov	r0, r3
.LEHB119:
	bl	_ZStplIcSt11char_traitsIcESaIcEENSt7__cxx1112basic_stringIT_T0_T1_EERKS8_PKS5_
.LEHE119:
	sub	r3, fp, #184
	sub	r2, fp, #792
	sub	r1, fp, #160
	mov	r0, r3
.LEHB120:
	bl	_ZStplIcSt11char_traitsIcESaIcEENSt7__cxx1112basic_stringIT_T0_T1_EEOS8_RKS8_
.LEHE120:
	sub	r3, fp, #208
	sub	r2, fp, #816
	sub	r1, fp, #184
	mov	r0, r3
.LEHB121:
	bl	_ZStplIcSt11char_traitsIcESaIcEENSt7__cxx1112basic_stringIT_T0_T1_EEOS8_RKS8_
.LEHE121:
	sub	r3, fp, #232
	sub	r1, fp, #208
	mov	r2, #32
	mov	r0, r3
.LEHB122:
	bl	_ZStplIcSt11char_traitsIcESaIcEENSt7__cxx1112basic_stringIT_T0_T1_EEOS8_S5_
.LEHE122:
	sub	r3, fp, #136
	ldr	r1, [fp, #-32]
	mov	r0, r3
.LEHB123:
	bl	_Z12get_registerB5cxx11j
.LEHE123:
	sub	r3, fp, #256
	sub	r2, fp, #136
	sub	r1, fp, #232
	mov	r0, r3
.LEHB124:
	bl	_ZStplIcSt11char_traitsIcESaIcEENSt7__cxx1112basic_stringIT_T0_T1_EEOS8_S9_
.LEHE124:
	sub	r3, fp, #280
	sub	r1, fp, #256
	mov	r2, #44
	mov	r0, r3
.LEHB125:
	bl	_ZStplIcSt11char_traitsIcESaIcEENSt7__cxx1112basic_stringIT_T0_T1_EEOS8_S5_
.LEHE125:
	sub	r3, fp, #112
	ldr	r1, [fp, #-28]
	mov	r0, r3
.LEHB126:
	bl	_Z12get_registerB5cxx11j
.LEHE126:
	sub	r3, fp, #304
	sub	r2, fp, #112
	sub	r1, fp, #280
	mov	r0, r3
.LEHB127:
	bl	_ZStplIcSt11char_traitsIcESaIcEENSt7__cxx1112basic_stringIT_T0_T1_EEOS8_S9_
.LEHE127:
	sub	r3, fp, #328
	sub	r1, fp, #304
	mov	r2, #44
	mov	r0, r3
.LEHB128:
	bl	_ZStplIcSt11char_traitsIcESaIcEENSt7__cxx1112basic_stringIT_T0_T1_EEOS8_S5_
.LEHE128:
	sub	r3, fp, #88
	ldr	r1, [fp, #-40]
	mov	r0, r3
.LEHB129:
	bl	_Z12get_registerB5cxx11j
.LEHE129:
	sub	r3, fp, #352
	sub	r2, fp, #88
	sub	r1, fp, #328
	mov	r0, r3
.LEHB130:
	bl	_ZStplIcSt11char_traitsIcESaIcEENSt7__cxx1112basic_stringIT_T0_T1_EEOS8_S9_
.LEHE130:
	sub	r3, fp, #376
	sub	r1, fp, #352
	mov	r2, #44
	mov	r0, r3
.LEHB131:
	bl	_ZStplIcSt11char_traitsIcESaIcEENSt7__cxx1112basic_stringIT_T0_T1_EEOS8_S5_
.LEHE131:
	sub	r3, fp, #64
	ldr	r1, [fp, #-36]
	mov	r0, r3
.LEHB132:
	bl	_Z12get_registerB5cxx11j
.LEHE132:
	sub	r3, fp, #400
	sub	r2, fp, #64
	sub	r1, fp, #376
	mov	r0, r3
.LEHB133:
	bl	_ZStplIcSt11char_traitsIcESaIcEENSt7__cxx1112basic_stringIT_T0_T1_EEOS8_S9_
.LEHE133:
	sub	r3, fp, #400
	mov	r1, r3
	ldr	r0, [fp, #-848]
	bl	_ZNSt7__cxx1112basic_stringIcSt11char_traitsIcESaIcEEaSEOS4_
	sub	r3, fp, #400
	mov	r0, r3
	bl	_ZNSt7__cxx1112basic_stringIcSt11char_traitsIcESaIcEED1Ev
	sub	r3, fp, #64
	mov	r0, r3
	bl	_ZNSt7__cxx1112basic_stringIcSt11char_traitsIcESaIcEED1Ev
	sub	r3, fp, #376
	mov	r0, r3
	bl	_ZNSt7__cxx1112basic_stringIcSt11char_traitsIcESaIcEED1Ev
	sub	r3, fp, #352
	mov	r0, r3
	bl	_ZNSt7__cxx1112basic_stringIcSt11char_traitsIcESaIcEED1Ev
	sub	r3, fp, #88
	mov	r0, r3
	bl	_ZNSt7__cxx1112basic_stringIcSt11char_traitsIcESaIcEED1Ev
	sub	r3, fp, #328
	mov	r0, r3
	bl	_ZNSt7__cxx1112basic_stringIcSt11char_traitsIcESaIcEED1Ev
	sub	r3, fp, #304
	mov	r0, r3
	bl	_ZNSt7__cxx1112basic_stringIcSt11char_traitsIcESaIcEED1Ev
	sub	r3, fp, #112
	mov	r0, r3
	bl	_ZNSt7__cxx1112basic_stringIcSt11char_traitsIcESaIcEED1Ev
	sub	r3, fp, #280
	mov	r0, r3
	bl	_ZNSt7__cxx1112basic_stringIcSt11char_traitsIcESaIcEED1Ev
	sub	r3, fp, #256
	mov	r0, r3
	bl	_ZNSt7__cxx1112basic_stringIcSt11char_traitsIcESaIcEED1Ev
	sub	r3, fp, #136
	mov	r0, r3
	bl	_ZNSt7__cxx1112basic_stringIcSt11char_traitsIcESaIcEED1Ev
	sub	r3, fp, #232
	mov	r0, r3
	bl	_ZNSt7__cxx1112basic_stringIcSt11char_traitsIcESaIcEED1Ev
	sub	r3, fp, #208
	mov	r0, r3
	bl	_ZNSt7__cxx1112basic_stringIcSt11char_traitsIcESaIcEED1Ev
	sub	r3, fp, #184
	mov	r0, r3
	bl	_ZNSt7__cxx1112basic_stringIcSt11char_traitsIcESaIcEED1Ev
	sub	r3, fp, #160
	mov	r0, r3
	bl	_ZNSt7__cxx1112basic_stringIcSt11char_traitsIcESaIcEED1Ev
.L360:
	nop
	sub	r3, fp, #840
	mov	r0, r3
	bl	_ZNSt7__cxx1112basic_stringIcSt11char_traitsIcESaIcEED1Ev
	sub	r3, fp, #816
	mov	r0, r3
	bl	_ZNSt7__cxx1112basic_stringIcSt11char_traitsIcESaIcEED1Ev
	sub	r3, fp, #792
	mov	r0, r3
	bl	_ZNSt7__cxx1112basic_stringIcSt11char_traitsIcESaIcEED1Ev
	b	.L359
.L327:
	sub	r3, fp, #768
	mov	r0, r3
	bl	_ZNSaIcED1Ev
	b	.L295
.L328:
	sub	r3, fp, #764
	mov	r0, r3
	bl	_ZNSaIcED1Ev
	b	.L297
.L343:
	sub	r3, fp, #424
	mov	r0, r3
	bl	_ZNSt7__cxx1112basic_stringIcSt11char_traitsIcESaIcEED1Ev
	b	.L299
.L342:
.L299:
	sub	r3, fp, #736
	mov	r0, r3
	bl	_ZNSt7__cxx1112basic_stringIcSt11char_traitsIcESaIcEED1Ev
	b	.L300
.L341:
.L300:
	sub	r3, fp, #712
	mov	r0, r3
	bl	_ZNSt7__cxx1112basic_stringIcSt11char_traitsIcESaIcEED1Ev
	b	.L301
.L340:
.L301:
	sub	r3, fp, #448
	mov	r0, r3
	bl	_ZNSt7__cxx1112basic_stringIcSt11char_traitsIcESaIcEED1Ev
	b	.L302
.L339:
.L302:
	sub	r3, fp, #688
	mov	r0, r3
	bl	_ZNSt7__cxx1112basic_stringIcSt11char_traitsIcESaIcEED1Ev
	b	.L303
.L338:
.L303:
	sub	r3, fp, #664
	mov	r0, r3
	bl	_ZNSt7__cxx1112basic_stringIcSt11char_traitsIcESaIcEED1Ev
	b	.L304
.L337:
.L304:
	sub	r3, fp, #472
	mov	r0, r3
	bl	_ZNSt7__cxx1112basic_stringIcSt11char_traitsIcESaIcEED1Ev
	b	.L305
.L336:
.L305:
	sub	r3, fp, #640
	mov	r0, r3
	bl	_ZNSt7__cxx1112basic_stringIcSt11char_traitsIcESaIcEED1Ev
	b	.L306
.L335:
.L306:
	sub	r3, fp, #616
	mov	r0, r3
	bl	_ZNSt7__cxx1112basic_stringIcSt11char_traitsIcESaIcEED1Ev
	b	.L307
.L334:
.L307:
	sub	r3, fp, #496
	mov	r0, r3
	bl	_ZNSt7__cxx1112basic_stringIcSt11char_traitsIcESaIcEED1Ev
	b	.L308
.L333:
.L308:
	sub	r3, fp, #592
	mov	r0, r3
	bl	_ZNSt7__cxx1112basic_stringIcSt11char_traitsIcESaIcEED1Ev
	b	.L309
.L332:
.L309:
	sub	r3, fp, #568
	mov	r0, r3
	bl	_ZNSt7__cxx1112basic_stringIcSt11char_traitsIcESaIcEED1Ev
	b	.L310
.L331:
.L310:
	sub	r3, fp, #544
	mov	r0, r3
	bl	_ZNSt7__cxx1112basic_stringIcSt11char_traitsIcESaIcEED1Ev
	b	.L311
.L330:
.L311:
	sub	r3, fp, #520
	mov	r0, r3
	bl	_ZNSt7__cxx1112basic_stringIcSt11char_traitsIcESaIcEED1Ev
	b	.L312
.L357:
	sub	r3, fp, #64
	mov	r0, r3
	bl	_ZNSt7__cxx1112basic_stringIcSt11char_traitsIcESaIcEED1Ev
	b	.L314
.L356:
.L314:
	sub	r3, fp, #376
	mov	r0, r3
	bl	_ZNSt7__cxx1112basic_stringIcSt11char_traitsIcESaIcEED1Ev
	b	.L315
.L355:
.L315:
	sub	r3, fp, #352
	mov	r0, r3
	bl	_ZNSt7__cxx1112basic_stringIcSt11char_traitsIcESaIcEED1Ev
	b	.L316
.L354:
.L316:
	sub	r3, fp, #88
	mov	r0, r3
	bl	_ZNSt7__cxx1112basic_stringIcSt11char_traitsIcESaIcEED1Ev
	b	.L317
.L353:
.L317:
	sub	r3, fp, #328
	mov	r0, r3
	bl	_ZNSt7__cxx1112basic_stringIcSt11char_traitsIcESaIcEED1Ev
	b	.L318
.L352:
.L318:
	sub	r3, fp, #304
	mov	r0, r3
	bl	_ZNSt7__cxx1112basic_stringIcSt11char_traitsIcESaIcEED1Ev
	b	.L319
.L351:
.L319:
	sub	r3, fp, #112
	mov	r0, r3
	bl	_ZNSt7__cxx1112basic_stringIcSt11char_traitsIcESaIcEED1Ev
	b	.L320
.L350:
.L320:
	sub	r3, fp, #280
	mov	r0, r3
	bl	_ZNSt7__cxx1112basic_stringIcSt11char_traitsIcESaIcEED1Ev
	b	.L321
.L349:
.L321:
	sub	r3, fp, #256
	mov	r0, r3
	bl	_ZNSt7__cxx1112basic_stringIcSt11char_traitsIcESaIcEED1Ev
	b	.L322
.L348:
.L322:
	sub	r3, fp, #136
	mov	r0, r3
	bl	_ZNSt7__cxx1112basic_stringIcSt11char_traitsIcESaIcEED1Ev
	b	.L323
.L347:
.L323:
	sub	r3, fp, #232
	mov	r0, r3
	bl	_ZNSt7__cxx1112basic_stringIcSt11char_traitsIcESaIcEED1Ev
	b	.L324
.L346:
.L324:
	sub	r3, fp, #208
	mov	r0, r3
	bl	_ZNSt7__cxx1112basic_stringIcSt11char_traitsIcESaIcEED1Ev
	b	.L325
.L345:
.L325:
	sub	r3, fp, #184
	mov	r0, r3
	bl	_ZNSt7__cxx1112basic_stringIcSt11char_traitsIcESaIcEED1Ev
	b	.L326
.L344:
.L326:
	sub	r3, fp, #160
	mov	r0, r3
	bl	_ZNSt7__cxx1112basic_stringIcSt11char_traitsIcESaIcEED1Ev
	b	.L312
.L329:
.L312:
	sub	r3, fp, #840
	mov	r0, r3
	bl	_ZNSt7__cxx1112basic_stringIcSt11char_traitsIcESaIcEED1Ev
.L297:
	sub	r3, fp, #816
	mov	r0, r3
	bl	_ZNSt7__cxx1112basic_stringIcSt11char_traitsIcESaIcEED1Ev
.L295:
	ldr	r0, [fp, #-848]
	bl	_ZNSt7__cxx1112basic_stringIcSt11char_traitsIcESaIcEED1Ev
	sub	r3, fp, #792
	mov	r0, r3
	bl	_ZNSt7__cxx1112basic_stringIcSt11char_traitsIcESaIcEED1Ev
.LEHB134:
	bl	__cxa_end_cleanup
.LEHE134:
.L359:
	ldr	r0, [fp, #-848]
	sub	sp, fp, #8
	@ sp needed
	pop	{r4, fp, pc}
.L362:
	.align	2
.L361:
	.word	.LC19
	.word	.LC7
	.word	.LC22
	.word	.LC23
	.word	.LC24
	.personality	__gxx_personality_v0
	.handlerdata
.LLSDA2699:
	.byte	0xff
	.byte	0xff
	.byte	0x1
	.uleb128 .LLSDACSE2699-.LLSDACSB2699
.LLSDACSB2699:
	.uleb128 .LEHB101-.LFB2699
	.uleb128 .LEHE101-.LEHB101
	.uleb128 0
	.uleb128 0
	.uleb128 .LEHB102-.LFB2699
	.uleb128 .LEHE102-.LEHB102
	.uleb128 .L327-.LFB2699
	.uleb128 0
	.uleb128 .LEHB103-.LFB2699
	.uleb128 .LEHE103-.LEHB103
	.uleb128 .L328-.LFB2699
	.uleb128 0
	.uleb128 .LEHB104-.LFB2699
	.uleb128 .LEHE104-.LEHB104
	.uleb128 .L329-.LFB2699
	.uleb128 0
	.uleb128 .LEHB105-.LFB2699
	.uleb128 .LEHE105-.LEHB105
	.uleb128 .L330-.LFB2699
	.uleb128 0
	.uleb128 .LEHB106-.LFB2699
	.uleb128 .LEHE106-.LEHB106
	.uleb128 .L331-.LFB2699
	.uleb128 0
	.uleb128 .LEHB107-.LFB2699
	.uleb128 .LEHE107-.LEHB107
	.uleb128 .L332-.LFB2699
	.uleb128 0
	.uleb128 .LEHB108-.LFB2699
	.uleb128 .LEHE108-.LEHB108
	.uleb128 .L333-.LFB2699
	.uleb128 0
	.uleb128 .LEHB109-.LFB2699
	.uleb128 .LEHE109-.LEHB109
	.uleb128 .L334-.LFB2699
	.uleb128 0
	.uleb128 .LEHB110-.LFB2699
	.uleb128 .LEHE110-.LEHB110
	.uleb128 .L335-.LFB2699
	.uleb128 0
	.uleb128 .LEHB111-.LFB2699
	.uleb128 .LEHE111-.LEHB111
	.uleb128 .L336-.LFB2699
	.uleb128 0
	.uleb128 .LEHB112-.LFB2699
	.uleb128 .LEHE112-.LEHB112
	.uleb128 .L337-.LFB2699
	.uleb128 0
	.uleb128 .LEHB113-.LFB2699
	.uleb128 .LEHE113-.LEHB113
	.uleb128 .L338-.LFB2699
	.uleb128 0
	.uleb128 .LEHB114-.LFB2699
	.uleb128 .LEHE114-.LEHB114
	.uleb128 .L339-.LFB2699
	.uleb128 0
	.uleb128 .LEHB115-.LFB2699
	.uleb128 .LEHE115-.LEHB115
	.uleb128 .L340-.LFB2699
	.uleb128 0
	.uleb128 .LEHB116-.LFB2699
	.uleb128 .LEHE116-.LEHB116
	.uleb128 .L341-.LFB2699
	.uleb128 0
	.uleb128 .LEHB117-.LFB2699
	.uleb128 .LEHE117-.LEHB117
	.uleb128 .L342-.LFB2699
	.uleb128 0
	.uleb128 .LEHB118-.LFB2699
	.uleb128 .LEHE118-.LEHB118
	.uleb128 .L343-.LFB2699
	.uleb128 0
	.uleb128 .LEHB119-.LFB2699
	.uleb128 .LEHE119-.LEHB119
	.uleb128 .L329-.LFB2699
	.uleb128 0
	.uleb128 .LEHB120-.LFB2699
	.uleb128 .LEHE120-.LEHB120
	.uleb128 .L344-.LFB2699
	.uleb128 0
	.uleb128 .LEHB121-.LFB2699
	.uleb128 .LEHE121-.LEHB121
	.uleb128 .L345-.LFB2699
	.uleb128 0
	.uleb128 .LEHB122-.LFB2699
	.uleb128 .LEHE122-.LEHB122
	.uleb128 .L346-.LFB2699
	.uleb128 0
	.uleb128 .LEHB123-.LFB2699
	.uleb128 .LEHE123-.LEHB123
	.uleb128 .L347-.LFB2699
	.uleb128 0
	.uleb128 .LEHB124-.LFB2699
	.uleb128 .LEHE124-.LEHB124
	.uleb128 .L348-.LFB2699
	.uleb128 0
	.uleb128 .LEHB125-.LFB2699
	.uleb128 .LEHE125-.LEHB125
	.uleb128 .L349-.LFB2699
	.uleb128 0
	.uleb128 .LEHB126-.LFB2699
	.uleb128 .LEHE126-.LEHB126
	.uleb128 .L350-.LFB2699
	.uleb128 0
	.uleb128 .LEHB127-.LFB2699
	.uleb128 .LEHE127-.LEHB127
	.uleb128 .L351-.LFB2699
	.uleb128 0
	.uleb128 .LEHB128-.LFB2699
	.uleb128 .LEHE128-.LEHB128
	.uleb128 .L352-.LFB2699
	.uleb128 0
	.uleb128 .LEHB129-.LFB2699
	.uleb128 .LEHE129-.LEHB129
	.uleb128 .L353-.LFB2699
	.uleb128 0
	.uleb128 .LEHB130-.LFB2699
	.uleb128 .LEHE130-.LEHB130
	.uleb128 .L354-.LFB2699
	.uleb128 0
	.uleb128 .LEHB131-.LFB2699
	.uleb128 .LEHE131-.LEHB131
	.uleb128 .L355-.LFB2699
	.uleb128 0
	.uleb128 .LEHB132-.LFB2699
	.uleb128 .LEHE132-.LEHB132
	.uleb128 .L356-.LFB2699
	.uleb128 0
	.uleb128 .LEHB133-.LFB2699
	.uleb128 .LEHE133-.LEHB133
	.uleb128 .L357-.LFB2699
	.uleb128 0
	.uleb128 .LEHB134-.LFB2699
	.uleb128 .LEHE134-.LEHB134
	.uleb128 0
	.uleb128 0
.LLSDACSE2699:
	.text
	.fnend
	.size	_Z20handle_multiply_longB5cxx11j, .-_Z20handle_multiply_longB5cxx11j
	.section	.rodata
	.align	2
.LC25:
	.ascii	"B \000"
	.align	2
.LC26:
	.ascii	"SWP\000"
	.align	2
.LC27:
	.ascii	",[\000"
	.align	2
.LC28:
	.ascii	"]\000"
	.text
	.align	2
	.global	_Z23handle_single_data_swapB5cxx11j
	.syntax unified
	.arm
	.fpu vfp
	.type	_Z23handle_single_data_swapB5cxx11j, %function
_Z23handle_single_data_swapB5cxx11j:
	.fnstart
.LFB2700:
	@ args = 0, pretend = 0, frame = 344
	@ frame_needed = 1, uses_anonymous_args = 0
	push	{r4, fp, lr}
	.save {r4, fp, lr}
	.setfp fp, sp, #8
	add	fp, sp, #8
	.pad #348
	sub	sp, sp, #348
	str	r0, [fp, #-352]
	str	r1, [fp, #-356]
	sub	r3, fp, #320
	ldr	r1, [fp, #-356]
	mov	r0, r3
.LEHB135:
	bl	_Z18get_condition_codeB5cxx11j
.LEHE135:
	ldr	r0, [fp, #-352]
	bl	_ZNSt7__cxx1112basic_stringIcSt11char_traitsIcESaIcEEC1Ev
	ldr	r3, [fp, #-356]
	lsr	r3, r3, #22
	and	r3, r3, #1
	str	r3, [fp, #-16]
	ldr	r3, [fp, #-356]
	lsr	r3, r3, #16
	and	r3, r3, #15
	str	r3, [fp, #-20]
	ldr	r3, [fp, #-356]
	lsr	r3, r3, #12
	and	r3, r3, #15
	str	r3, [fp, #-24]
	ldr	r3, [fp, #-356]
	and	r3, r3, #15
	str	r3, [fp, #-28]
	ldr	r3, [fp, #-16]
	cmp	r3, #1
	bne	.L364
	ldr	r4, .L393
	b	.L365
.L364:
	ldr	r4, .L393+4
.L365:
	sub	r3, fp, #296
	mov	r0, r3
	bl	_ZNSaIcEC1Ev
	sub	r2, fp, #296
	sub	r3, fp, #344
	mov	r1, r4
	mov	r0, r3
.LEHB136:
	bl	_ZNSt7__cxx1112basic_stringIcSt11char_traitsIcESaIcEEC1EPKcRKS3_
.LEHE136:
	sub	r3, fp, #296
	mov	r0, r3
	bl	_ZNSaIcED1Ev
	sub	r3, fp, #124
	sub	r2, fp, #320
	ldr	r1, .L393+8
	mov	r0, r3
.LEHB137:
	bl	_ZStplIcSt11char_traitsIcESaIcEENSt7__cxx1112basic_stringIT_T0_T1_EEPKS5_RKS8_
.LEHE137:
	sub	r3, fp, #148
	sub	r2, fp, #344
	sub	r1, fp, #124
	mov	r0, r3
.LEHB138:
	bl	_ZStplIcSt11char_traitsIcESaIcEENSt7__cxx1112basic_stringIT_T0_T1_EEOS8_RKS8_
.LEHE138:
	sub	r3, fp, #100
	ldr	r1, [fp, #-24]
	mov	r0, r3
.LEHB139:
	bl	_Z12get_registerB5cxx11j
.LEHE139:
	sub	r3, fp, #172
	sub	r2, fp, #100
	sub	r1, fp, #148
	mov	r0, r3
.LEHB140:
	bl	_ZStplIcSt11char_traitsIcESaIcEENSt7__cxx1112basic_stringIT_T0_T1_EEOS8_S9_
.LEHE140:
	sub	r3, fp, #196
	sub	r1, fp, #172
	ldr	r2, .L393+12
	mov	r0, r3
.LEHB141:
	bl	_ZStplIcSt11char_traitsIcESaIcEENSt7__cxx1112basic_stringIT_T0_T1_EEOS8_PKS5_
.LEHE141:
	sub	r3, fp, #76
	ldr	r1, [fp, #-28]
	mov	r0, r3
.LEHB142:
	bl	_Z12get_registerB5cxx11j
.LEHE142:
	sub	r3, fp, #220
	sub	r2, fp, #76
	sub	r1, fp, #196
	mov	r0, r3
.LEHB143:
	bl	_ZStplIcSt11char_traitsIcESaIcEENSt7__cxx1112basic_stringIT_T0_T1_EEOS8_S9_
.LEHE143:
	sub	r3, fp, #244
	sub	r1, fp, #220
	ldr	r2, .L393+16
	mov	r0, r3
.LEHB144:
	bl	_ZStplIcSt11char_traitsIcESaIcEENSt7__cxx1112basic_stringIT_T0_T1_EEOS8_PKS5_
.LEHE144:
	sub	r3, fp, #52
	ldr	r1, [fp, #-20]
	mov	r0, r3
.LEHB145:
	bl	_Z12get_registerB5cxx11j
.LEHE145:
	sub	r3, fp, #268
	sub	r2, fp, #52
	sub	r1, fp, #244
	mov	r0, r3
.LEHB146:
	bl	_ZStplIcSt11char_traitsIcESaIcEENSt7__cxx1112basic_stringIT_T0_T1_EEOS8_S9_
.LEHE146:
	sub	r3, fp, #292
	sub	r1, fp, #268
	ldr	r2, .L393+20
	mov	r0, r3
.LEHB147:
	bl	_ZStplIcSt11char_traitsIcESaIcEENSt7__cxx1112basic_stringIT_T0_T1_EEOS8_PKS5_
.LEHE147:
	sub	r3, fp, #292
	mov	r1, r3
	ldr	r0, [fp, #-352]
	bl	_ZNSt7__cxx1112basic_stringIcSt11char_traitsIcESaIcEEaSEOS4_
	sub	r3, fp, #292
	mov	r0, r3
	bl	_ZNSt7__cxx1112basic_stringIcSt11char_traitsIcESaIcEED1Ev
	sub	r3, fp, #268
	mov	r0, r3
	bl	_ZNSt7__cxx1112basic_stringIcSt11char_traitsIcESaIcEED1Ev
	sub	r3, fp, #52
	mov	r0, r3
	bl	_ZNSt7__cxx1112basic_stringIcSt11char_traitsIcESaIcEED1Ev
	sub	r3, fp, #244
	mov	r0, r3
	bl	_ZNSt7__cxx1112basic_stringIcSt11char_traitsIcESaIcEED1Ev
	sub	r3, fp, #220
	mov	r0, r3
	bl	_ZNSt7__cxx1112basic_stringIcSt11char_traitsIcESaIcEED1Ev
	sub	r3, fp, #76
	mov	r0, r3
	bl	_ZNSt7__cxx1112basic_stringIcSt11char_traitsIcESaIcEED1Ev
	sub	r3, fp, #196
	mov	r0, r3
	bl	_ZNSt7__cxx1112basic_stringIcSt11char_traitsIcESaIcEED1Ev
	sub	r3, fp, #172
	mov	r0, r3
	bl	_ZNSt7__cxx1112basic_stringIcSt11char_traitsIcESaIcEED1Ev
	sub	r3, fp, #100
	mov	r0, r3
	bl	_ZNSt7__cxx1112basic_stringIcSt11char_traitsIcESaIcEED1Ev
	sub	r3, fp, #148
	mov	r0, r3
	bl	_ZNSt7__cxx1112basic_stringIcSt11char_traitsIcESaIcEED1Ev
	sub	r3, fp, #124
	mov	r0, r3
	bl	_ZNSt7__cxx1112basic_stringIcSt11char_traitsIcESaIcEED1Ev
	nop
	sub	r3, fp, #344
	mov	r0, r3
	bl	_ZNSt7__cxx1112basic_stringIcSt11char_traitsIcESaIcEED1Ev
	sub	r3, fp, #320
	mov	r0, r3
	bl	_ZNSt7__cxx1112basic_stringIcSt11char_traitsIcESaIcEED1Ev
	b	.L392
.L380:
	sub	r3, fp, #296
	mov	r0, r3
	bl	_ZNSaIcED1Ev
	b	.L368
.L391:
	sub	r3, fp, #268
	mov	r0, r3
	bl	_ZNSt7__cxx1112basic_stringIcSt11char_traitsIcESaIcEED1Ev
	b	.L370
.L390:
.L370:
	sub	r3, fp, #52
	mov	r0, r3
	bl	_ZNSt7__cxx1112basic_stringIcSt11char_traitsIcESaIcEED1Ev
	b	.L371
.L389:
.L371:
	sub	r3, fp, #244
	mov	r0, r3
	bl	_ZNSt7__cxx1112basic_stringIcSt11char_traitsIcESaIcEED1Ev
	b	.L372
.L388:
.L372:
	sub	r3, fp, #220
	mov	r0, r3
	bl	_ZNSt7__cxx1112basic_stringIcSt11char_traitsIcESaIcEED1Ev
	b	.L373
.L387:
.L373:
	sub	r3, fp, #76
	mov	r0, r3
	bl	_ZNSt7__cxx1112basic_stringIcSt11char_traitsIcESaIcEED1Ev
	b	.L374
.L386:
.L374:
	sub	r3, fp, #196
	mov	r0, r3
	bl	_ZNSt7__cxx1112basic_stringIcSt11char_traitsIcESaIcEED1Ev
	b	.L375
.L385:
.L375:
	sub	r3, fp, #172
	mov	r0, r3
	bl	_ZNSt7__cxx1112basic_stringIcSt11char_traitsIcESaIcEED1Ev
	b	.L376
.L384:
.L376:
	sub	r3, fp, #100
	mov	r0, r3
	bl	_ZNSt7__cxx1112basic_stringIcSt11char_traitsIcESaIcEED1Ev
	b	.L377
.L383:
.L377:
	sub	r3, fp, #148
	mov	r0, r3
	bl	_ZNSt7__cxx1112basic_stringIcSt11char_traitsIcESaIcEED1Ev
	b	.L378
.L382:
.L378:
	sub	r3, fp, #124
	mov	r0, r3
	bl	_ZNSt7__cxx1112basic_stringIcSt11char_traitsIcESaIcEED1Ev
	b	.L379
.L381:
.L379:
	sub	r3, fp, #344
	mov	r0, r3
	bl	_ZNSt7__cxx1112basic_stringIcSt11char_traitsIcESaIcEED1Ev
.L368:
	ldr	r0, [fp, #-352]
	bl	_ZNSt7__cxx1112basic_stringIcSt11char_traitsIcESaIcEED1Ev
	sub	r3, fp, #320
	mov	r0, r3
	bl	_ZNSt7__cxx1112basic_stringIcSt11char_traitsIcESaIcEED1Ev
.LEHB148:
	bl	__cxa_end_cleanup
.LEHE148:
.L392:
	ldr	r0, [fp, #-352]
	sub	sp, fp, #8
	@ sp needed
	pop	{r4, fp, pc}
.L394:
	.align	2
.L393:
	.word	.LC25
	.word	.LC3
	.word	.LC26
	.word	.LC8
	.word	.LC27
	.word	.LC28
	.personality	__gxx_personality_v0
	.handlerdata
.LLSDA2700:
	.byte	0xff
	.byte	0xff
	.byte	0x1
	.uleb128 .LLSDACSE2700-.LLSDACSB2700
.LLSDACSB2700:
	.uleb128 .LEHB135-.LFB2700
	.uleb128 .LEHE135-.LEHB135
	.uleb128 0
	.uleb128 0
	.uleb128 .LEHB136-.LFB2700
	.uleb128 .LEHE136-.LEHB136
	.uleb128 .L380-.LFB2700
	.uleb128 0
	.uleb128 .LEHB137-.LFB2700
	.uleb128 .LEHE137-.LEHB137
	.uleb128 .L381-.LFB2700
	.uleb128 0
	.uleb128 .LEHB138-.LFB2700
	.uleb128 .LEHE138-.LEHB138
	.uleb128 .L382-.LFB2700
	.uleb128 0
	.uleb128 .LEHB139-.LFB2700
	.uleb128 .LEHE139-.LEHB139
	.uleb128 .L383-.LFB2700
	.uleb128 0
	.uleb128 .LEHB140-.LFB2700
	.uleb128 .LEHE140-.LEHB140
	.uleb128 .L384-.LFB2700
	.uleb128 0
	.uleb128 .LEHB141-.LFB2700
	.uleb128 .LEHE141-.LEHB141
	.uleb128 .L385-.LFB2700
	.uleb128 0
	.uleb128 .LEHB142-.LFB2700
	.uleb128 .LEHE142-.LEHB142
	.uleb128 .L386-.LFB2700
	.uleb128 0
	.uleb128 .LEHB143-.LFB2700
	.uleb128 .LEHE143-.LEHB143
	.uleb128 .L387-.LFB2700
	.uleb128 0
	.uleb128 .LEHB144-.LFB2700
	.uleb128 .LEHE144-.LEHB144
	.uleb128 .L388-.LFB2700
	.uleb128 0
	.uleb128 .LEHB145-.LFB2700
	.uleb128 .LEHE145-.LEHB145
	.uleb128 .L389-.LFB2700
	.uleb128 0
	.uleb128 .LEHB146-.LFB2700
	.uleb128 .LEHE146-.LEHB146
	.uleb128 .L390-.LFB2700
	.uleb128 0
	.uleb128 .LEHB147-.LFB2700
	.uleb128 .LEHE147-.LEHB147
	.uleb128 .L391-.LFB2700
	.uleb128 0
	.uleb128 .LEHB148-.LFB2700
	.uleb128 .LEHE148-.LEHB148
	.uleb128 0
	.uleb128 0
.LLSDACSE2700:
	.text
	.fnend
	.size	_Z23handle_single_data_swapB5cxx11j, .-_Z23handle_single_data_swapB5cxx11j
	.section	.rodata
	.align	2
.LC29:
	.ascii	"BX\000"
	.text
	.align	2
	.global	_Z26handle_branch_and_exchangeB5cxx11j
	.syntax unified
	.arm
	.fpu vfp
	.type	_Z26handle_branch_and_exchangeB5cxx11j, %function
_Z26handle_branch_and_exchangeB5cxx11j:
	.fnstart
.LFB2701:
	@ args = 0, pretend = 0, frame = 160
	@ frame_needed = 1, uses_anonymous_args = 0
	push	{fp, lr}
	.save {fp, lr}
	.setfp fp, sp, #4
	add	fp, sp, #4
	.pad #160
	sub	sp, sp, #160
	str	r0, [fp, #-160]
	str	r1, [fp, #-164]
	sub	r3, fp, #128
	ldr	r1, [fp, #-164]
	mov	r0, r3
.LEHB149:
	bl	_Z18get_condition_codeB5cxx11j
.LEHE149:
	sub	r3, fp, #152
	mov	r0, r3
	bl	_ZNSt7__cxx1112basic_stringIcSt11char_traitsIcESaIcEEC1Ev
	ldr	r3, [fp, #-164]
	and	r3, r3, #15
	str	r3, [fp, #-8]
	sub	r3, fp, #56
	sub	r2, fp, #128
	ldr	r1, .L408
	mov	r0, r3
.LEHB150:
	bl	_ZStplIcSt11char_traitsIcESaIcEENSt7__cxx1112basic_stringIT_T0_T1_EEPKS5_RKS8_
.LEHE150:
	sub	r3, fp, #80
	sub	r1, fp, #56
	ldr	r2, .L408+4
	mov	r0, r3
.LEHB151:
	bl	_ZStplIcSt11char_traitsIcESaIcEENSt7__cxx1112basic_stringIT_T0_T1_EEOS8_PKS5_
.LEHE151:
	sub	r3, fp, #32
	ldr	r1, [fp, #-8]
	mov	r0, r3
.LEHB152:
	bl	_Z12get_registerB5cxx11j
.LEHE152:
	sub	r3, fp, #104
	sub	r2, fp, #32
	sub	r1, fp, #80
	mov	r0, r3
.LEHB153:
	bl	_ZStplIcSt11char_traitsIcESaIcEENSt7__cxx1112basic_stringIT_T0_T1_EEOS8_S9_
.LEHE153:
	sub	r2, fp, #104
	sub	r3, fp, #152
	mov	r1, r2
	mov	r0, r3
	bl	_ZNSt7__cxx1112basic_stringIcSt11char_traitsIcESaIcEEaSEOS4_
	mov	r3, r0
	mov	r1, r3
	ldr	r0, [fp, #-160]
.LEHB154:
	bl	_ZNSt7__cxx1112basic_stringIcSt11char_traitsIcESaIcEEC1ERKS4_
.LEHE154:
	sub	r3, fp, #104
	mov	r0, r3
	bl	_ZNSt7__cxx1112basic_stringIcSt11char_traitsIcESaIcEED1Ev
	sub	r3, fp, #32
	mov	r0, r3
	bl	_ZNSt7__cxx1112basic_stringIcSt11char_traitsIcESaIcEED1Ev
	sub	r3, fp, #80
	mov	r0, r3
	bl	_ZNSt7__cxx1112basic_stringIcSt11char_traitsIcESaIcEED1Ev
	sub	r3, fp, #56
	mov	r0, r3
	bl	_ZNSt7__cxx1112basic_stringIcSt11char_traitsIcESaIcEED1Ev
	sub	r3, fp, #152
	mov	r0, r3
	bl	_ZNSt7__cxx1112basic_stringIcSt11char_traitsIcESaIcEED1Ev
	sub	r3, fp, #128
	mov	r0, r3
	bl	_ZNSt7__cxx1112basic_stringIcSt11char_traitsIcESaIcEED1Ev
	b	.L407
.L406:
	sub	r3, fp, #104
	mov	r0, r3
	bl	_ZNSt7__cxx1112basic_stringIcSt11char_traitsIcESaIcEED1Ev
	b	.L398
.L405:
.L398:
	sub	r3, fp, #32
	mov	r0, r3
	bl	_ZNSt7__cxx1112basic_stringIcSt11char_traitsIcESaIcEED1Ev
	b	.L399
.L404:
.L399:
	sub	r3, fp, #80
	mov	r0, r3
	bl	_ZNSt7__cxx1112basic_stringIcSt11char_traitsIcESaIcEED1Ev
	b	.L400
.L403:
.L400:
	sub	r3, fp, #56
	mov	r0, r3
	bl	_ZNSt7__cxx1112basic_stringIcSt11char_traitsIcESaIcEED1Ev
	b	.L401
.L402:
.L401:
	sub	r3, fp, #152
	mov	r0, r3
	bl	_ZNSt7__cxx1112basic_stringIcSt11char_traitsIcESaIcEED1Ev
	sub	r3, fp, #128
	mov	r0, r3
	bl	_ZNSt7__cxx1112basic_stringIcSt11char_traitsIcESaIcEED1Ev
.LEHB155:
	bl	__cxa_end_cleanup
.LEHE155:
.L407:
	ldr	r0, [fp, #-160]
	sub	sp, fp, #4
	@ sp needed
	pop	{fp, pc}
.L409:
	.align	2
.L408:
	.word	.LC29
	.word	.LC3
	.personality	__gxx_personality_v0
	.handlerdata
.LLSDA2701:
	.byte	0xff
	.byte	0xff
	.byte	0x1
	.uleb128 .LLSDACSE2701-.LLSDACSB2701
.LLSDACSB2701:
	.uleb128 .LEHB149-.LFB2701
	.uleb128 .LEHE149-.LEHB149
	.uleb128 0
	.uleb128 0
	.uleb128 .LEHB150-.LFB2701
	.uleb128 .LEHE150-.LEHB150
	.uleb128 .L402-.LFB2701
	.uleb128 0
	.uleb128 .LEHB151-.LFB2701
	.uleb128 .LEHE151-.LEHB151
	.uleb128 .L403-.LFB2701
	.uleb128 0
	.uleb128 .LEHB152-.LFB2701
	.uleb128 .LEHE152-.LEHB152
	.uleb128 .L404-.LFB2701
	.uleb128 0
	.uleb128 .LEHB153-.LFB2701
	.uleb128 .LEHE153-.LEHB153
	.uleb128 .L405-.LFB2701
	.uleb128 0
	.uleb128 .LEHB154-.LFB2701
	.uleb128 .LEHE154-.LEHB154
	.uleb128 .L406-.LFB2701
	.uleb128 0
	.uleb128 .LEHB155-.LFB2701
	.uleb128 .LEHE155-.LEHB155
	.uleb128 0
	.uleb128 0
.LLSDACSE2701:
	.text
	.fnend
	.size	_Z26handle_branch_and_exchangeB5cxx11j, .-_Z26handle_branch_and_exchangeB5cxx11j
	.section	.rodata
	.align	2
.LC30:
	.ascii	"-\000"
	.align	2
.LC31:
	.ascii	"LDR\000"
	.align	2
.LC32:
	.ascii	"STR\000"
	.align	2
.LC33:
	.ascii	"!\000"
	.align	2
.LC34:
	.ascii	"[\000"
	.align	2
.LC35:
	.ascii	"],\000"
	.text
	.align	2
	.global	_Z22handle_hwdt_reg_offsetB5cxx11j
	.syntax unified
	.arm
	.fpu vfp
	.type	_Z22handle_hwdt_reg_offsetB5cxx11j, %function
_Z22handle_hwdt_reg_offsetB5cxx11j:
	.fnstart
.LFB2702:
	@ args = 0, pretend = 0, frame = 824
	@ frame_needed = 1, uses_anonymous_args = 0
	push	{r4, fp, lr}
	.save {r4, fp, lr}
	.setfp fp, sp, #8
	add	fp, sp, #8
	.pad #828
	sub	sp, sp, #828
	str	r0, [fp, #-832]
	str	r1, [fp, #-836]
	ldr	r2, [fp, #-836]
	sub	r3, fp, #708
	mov	r1, r2
	mov	r0, r3
.LEHB156:
	bl	_Z18get_condition_codeB5cxx11j
.LEHE156:
	ldr	r0, [fp, #-832]
	bl	_ZNSt7__cxx1112basic_stringIcSt11char_traitsIcESaIcEEC1Ev
	ldr	r3, [fp, #-836]
	lsr	r3, r3, #24
	and	r3, r3, #1
	str	r3, [fp, #-16]
	ldr	r3, [fp, #-836]
	lsr	r3, r3, #23
	and	r3, r3, #1
	str	r3, [fp, #-20]
	ldr	r3, [fp, #-836]
	lsr	r3, r3, #21
	and	r3, r3, #1
	str	r3, [fp, #-24]
	ldr	r3, [fp, #-836]
	lsr	r3, r3, #20
	and	r3, r3, #1
	str	r3, [fp, #-28]
	ldr	r3, [fp, #-836]
	lsr	r3, r3, #16
	and	r3, r3, #15
	str	r3, [fp, #-32]
	ldr	r3, [fp, #-836]
	lsr	r3, r3, #12
	and	r3, r3, #15
	str	r3, [fp, #-36]
	ldr	r3, [fp, #-836]
	lsr	r3, r3, #6
	and	r3, r3, #1
	str	r3, [fp, #-40]
	ldr	r3, [fp, #-836]
	lsr	r3, r3, #5
	and	r3, r3, #1
	str	r3, [fp, #-44]
	ldr	r3, [fp, #-836]
	and	r3, r3, #15
	str	r3, [fp, #-48]
	sub	r3, fp, #732
	ldr	r2, [fp, #-44]
	ldr	r1, [fp, #-40]
	mov	r0, r3
.LEHB157:
	bl	_Z11get_sb_sh_hB5cxx11jj
.LEHE157:
	ldr	r3, [fp, #-20]
	cmp	r3, #1
	bne	.L411
	ldr	r4, .L479
	b	.L412
.L411:
	ldr	r4, .L479+4
.L412:
	sub	r3, fp, #684
	mov	r0, r3
	bl	_ZNSaIcEC1Ev
	sub	r2, fp, #684
	sub	r3, fp, #756
	mov	r1, r4
	mov	r0, r3
.LEHB158:
	bl	_ZNSt7__cxx1112basic_stringIcSt11char_traitsIcESaIcEEC1EPKcRKS3_
.LEHE158:
	sub	r3, fp, #684
	mov	r0, r3
	bl	_ZNSaIcED1Ev
	ldr	r3, [fp, #-28]
	cmp	r3, #1
	bne	.L413
	ldr	r4, .L479+8
	b	.L414
.L413:
	ldr	r4, .L479+12
.L414:
	sub	r3, fp, #680
	mov	r0, r3
	bl	_ZNSaIcEC1Ev
	sub	r2, fp, #680
	sub	r3, fp, #780
	mov	r1, r4
	mov	r0, r3
.LEHB159:
	bl	_ZNSt7__cxx1112basic_stringIcSt11char_traitsIcESaIcEEC1EPKcRKS3_
.LEHE159:
	sub	r3, fp, #680
	mov	r0, r3
	bl	_ZNSaIcED1Ev
	ldr	r3, [fp, #-24]
	cmp	r3, #1
	bne	.L415
	ldr	r4, .L479+16
	b	.L416
.L415:
	ldr	r4, .L479
.L416:
	sub	r3, fp, #676
	mov	r0, r3
	bl	_ZNSaIcEC1Ev
	sub	r2, fp, #676
	sub	r3, fp, #804
	mov	r1, r4
	mov	r0, r3
.LEHB160:
	bl	_ZNSt7__cxx1112basic_stringIcSt11char_traitsIcESaIcEEC1EPKcRKS3_
.LEHE160:
	sub	r3, fp, #676
	mov	r0, r3
	bl	_ZNSaIcED1Ev
	sub	r3, fp, #828
	mov	r0, r3
	bl	_ZNSt7__cxx1112basic_stringIcSt11char_traitsIcESaIcEEC1Ev
	ldr	r3, [fp, #-16]
	cmp	r3, #0
	beq	.L417
	ldr	r3, [fp, #-48]
	cmp	r3, #0
	bne	.L418
	sub	r3, fp, #624
	ldr	r1, [fp, #-32]
	mov	r0, r3
.LEHB161:
	bl	_Z12get_registerB5cxx11j
.LEHE161:
	sub	r3, fp, #648
	sub	r2, fp, #624
	ldr	r1, .L479+20
	mov	r0, r3
.LEHB162:
	bl	_ZStplIcSt11char_traitsIcESaIcEENSt7__cxx1112basic_stringIT_T0_T1_EEPKS5_OS8_
.LEHE162:
	sub	r3, fp, #672
	sub	r1, fp, #648
	ldr	r2, .L479+24
	mov	r0, r3
.LEHB163:
	bl	_ZStplIcSt11char_traitsIcESaIcEENSt7__cxx1112basic_stringIT_T0_T1_EEOS8_PKS5_
.LEHE163:
	sub	r2, fp, #672
	sub	r3, fp, #828
	mov	r1, r2
	mov	r0, r3
	bl	_ZNSt7__cxx1112basic_stringIcSt11char_traitsIcESaIcEEaSEOS4_
	sub	r3, fp, #672
	mov	r0, r3
	bl	_ZNSt7__cxx1112basic_stringIcSt11char_traitsIcESaIcEED1Ev
	sub	r3, fp, #648
	mov	r0, r3
	bl	_ZNSt7__cxx1112basic_stringIcSt11char_traitsIcESaIcEED1Ev
	sub	r3, fp, #624
	mov	r0, r3
	bl	_ZNSt7__cxx1112basic_stringIcSt11char_traitsIcESaIcEED1Ev
	b	.L420
.L418:
	sub	r3, fp, #456
	ldr	r1, [fp, #-32]
	mov	r0, r3
.LEHB164:
	bl	_Z12get_registerB5cxx11j
.LEHE164:
	sub	r3, fp, #480
	sub	r2, fp, #456
	ldr	r1, .L479+20
	mov	r0, r3
.LEHB165:
	bl	_ZStplIcSt11char_traitsIcESaIcEENSt7__cxx1112basic_stringIT_T0_T1_EEPKS5_OS8_
.LEHE165:
	sub	r3, fp, #504
	sub	r1, fp, #480
	mov	r2, #44
	mov	r0, r3
.LEHB166:
	bl	_ZStplIcSt11char_traitsIcESaIcEENSt7__cxx1112basic_stringIT_T0_T1_EEOS8_S5_
.LEHE166:
	sub	r3, fp, #528
	sub	r2, fp, #756
	sub	r1, fp, #504
	mov	r0, r3
.LEHB167:
	bl	_ZStplIcSt11char_traitsIcESaIcEENSt7__cxx1112basic_stringIT_T0_T1_EEOS8_RKS8_
.LEHE167:
	sub	r3, fp, #432
	ldr	r1, [fp, #-48]
	mov	r0, r3
.LEHB168:
	bl	_Z12get_registerB5cxx11j
.LEHE168:
	sub	r3, fp, #552
	sub	r2, fp, #432
	sub	r1, fp, #528
	mov	r0, r3
.LEHB169:
	bl	_ZStplIcSt11char_traitsIcESaIcEENSt7__cxx1112basic_stringIT_T0_T1_EEOS8_S9_
.LEHE169:
	sub	r3, fp, #576
	sub	r1, fp, #552
	ldr	r2, .L479+24
	mov	r0, r3
.LEHB170:
	bl	_ZStplIcSt11char_traitsIcESaIcEENSt7__cxx1112basic_stringIT_T0_T1_EEOS8_PKS5_
.LEHE170:
	sub	r3, fp, #600
	sub	r2, fp, #804
	sub	r1, fp, #576
	mov	r0, r3
.LEHB171:
	bl	_ZStplIcSt11char_traitsIcESaIcEENSt7__cxx1112basic_stringIT_T0_T1_EEOS8_RKS8_
.LEHE171:
	sub	r2, fp, #600
	sub	r3, fp, #828
	mov	r1, r2
	mov	r0, r3
	bl	_ZNSt7__cxx1112basic_stringIcSt11char_traitsIcESaIcEEaSEOS4_
	sub	r3, fp, #600
	mov	r0, r3
	bl	_ZNSt7__cxx1112basic_stringIcSt11char_traitsIcESaIcEED1Ev
	sub	r3, fp, #576
	mov	r0, r3
	bl	_ZNSt7__cxx1112basic_stringIcSt11char_traitsIcESaIcEED1Ev
	sub	r3, fp, #552
	mov	r0, r3
	bl	_ZNSt7__cxx1112basic_stringIcSt11char_traitsIcESaIcEED1Ev
	sub	r3, fp, #432
	mov	r0, r3
	bl	_ZNSt7__cxx1112basic_stringIcSt11char_traitsIcESaIcEED1Ev
	sub	r3, fp, #528
	mov	r0, r3
	bl	_ZNSt7__cxx1112basic_stringIcSt11char_traitsIcESaIcEED1Ev
	sub	r3, fp, #504
	mov	r0, r3
	bl	_ZNSt7__cxx1112basic_stringIcSt11char_traitsIcESaIcEED1Ev
	sub	r3, fp, #480
	mov	r0, r3
	bl	_ZNSt7__cxx1112basic_stringIcSt11char_traitsIcESaIcEED1Ev
	sub	r3, fp, #456
	mov	r0, r3
	bl	_ZNSt7__cxx1112basic_stringIcSt11char_traitsIcESaIcEED1Ev
	b	.L420
.L417:
	ldr	r3, [fp, #-48]
	cmp	r3, #0
	bne	.L421
	sub	r3, fp, #360
	ldr	r1, [fp, #-32]
	mov	r0, r3
.LEHB172:
	bl	_Z12get_registerB5cxx11j
.LEHE172:
	sub	r3, fp, #384
	sub	r2, fp, #360
	ldr	r1, .L479+20
	mov	r0, r3
.LEHB173:
	bl	_ZStplIcSt11char_traitsIcESaIcEENSt7__cxx1112basic_stringIT_T0_T1_EEPKS5_OS8_
.LEHE173:
	sub	r3, fp, #408
	sub	r1, fp, #384
	ldr	r2, .L479+24
	mov	r0, r3
.LEHB174:
	bl	_ZStplIcSt11char_traitsIcESaIcEENSt7__cxx1112basic_stringIT_T0_T1_EEOS8_PKS5_
.LEHE174:
	sub	r2, fp, #408
	sub	r3, fp, #828
	mov	r1, r2
	mov	r0, r3
	bl	_ZNSt7__cxx1112basic_stringIcSt11char_traitsIcESaIcEEaSEOS4_
	sub	r3, fp, #408
	mov	r0, r3
	bl	_ZNSt7__cxx1112basic_stringIcSt11char_traitsIcESaIcEED1Ev
	sub	r3, fp, #384
	mov	r0, r3
	bl	_ZNSt7__cxx1112basic_stringIcSt11char_traitsIcESaIcEED1Ev
	sub	r3, fp, #360
	mov	r0, r3
	bl	_ZNSt7__cxx1112basic_stringIcSt11char_traitsIcESaIcEED1Ev
	b	.L420
.L421:
	sub	r3, fp, #240
	ldr	r1, [fp, #-32]
	mov	r0, r3
.LEHB175:
	bl	_Z12get_registerB5cxx11j
.LEHE175:
	sub	r3, fp, #264
	sub	r2, fp, #240
	ldr	r1, .L479+20
	mov	r0, r3
.LEHB176:
	bl	_ZStplIcSt11char_traitsIcESaIcEENSt7__cxx1112basic_stringIT_T0_T1_EEPKS5_OS8_
.LEHE176:
	sub	r3, fp, #288
	sub	r1, fp, #264
	ldr	r2, .L479+28
	mov	r0, r3
.LEHB177:
	bl	_ZStplIcSt11char_traitsIcESaIcEENSt7__cxx1112basic_stringIT_T0_T1_EEOS8_PKS5_
.LEHE177:
	sub	r3, fp, #312
	sub	r2, fp, #756
	sub	r1, fp, #288
	mov	r0, r3
.LEHB178:
	bl	_ZStplIcSt11char_traitsIcESaIcEENSt7__cxx1112basic_stringIT_T0_T1_EEOS8_RKS8_
.LEHE178:
	sub	r3, fp, #216
	ldr	r1, [fp, #-48]
	mov	r0, r3
.LEHB179:
	bl	_Z12get_registerB5cxx11j
.LEHE179:
	sub	r3, fp, #336
	sub	r2, fp, #216
	sub	r1, fp, #312
	mov	r0, r3
.LEHB180:
	bl	_ZStplIcSt11char_traitsIcESaIcEENSt7__cxx1112basic_stringIT_T0_T1_EEOS8_S9_
.LEHE180:
	sub	r2, fp, #336
	sub	r3, fp, #828
	mov	r1, r2
	mov	r0, r3
	bl	_ZNSt7__cxx1112basic_stringIcSt11char_traitsIcESaIcEEaSEOS4_
	sub	r3, fp, #336
	mov	r0, r3
	bl	_ZNSt7__cxx1112basic_stringIcSt11char_traitsIcESaIcEED1Ev
	sub	r3, fp, #216
	mov	r0, r3
	bl	_ZNSt7__cxx1112basic_stringIcSt11char_traitsIcESaIcEED1Ev
	sub	r3, fp, #312
	mov	r0, r3
	bl	_ZNSt7__cxx1112basic_stringIcSt11char_traitsIcESaIcEED1Ev
	sub	r3, fp, #288
	mov	r0, r3
	bl	_ZNSt7__cxx1112basic_stringIcSt11char_traitsIcESaIcEED1Ev
	sub	r3, fp, #264
	mov	r0, r3
	bl	_ZNSt7__cxx1112basic_stringIcSt11char_traitsIcESaIcEED1Ev
	sub	r3, fp, #240
	mov	r0, r3
	bl	_ZNSt7__cxx1112basic_stringIcSt11char_traitsIcESaIcEED1Ev
.L420:
	sub	r3, fp, #96
	sub	r2, fp, #708
	sub	r1, fp, #780
	mov	r0, r3
.LEHB181:
	bl	_ZStplIcSt11char_traitsIcESaIcEENSt7__cxx1112basic_stringIT_T0_T1_EERKS8_SA_
.LEHE181:
	sub	r3, fp, #120
	sub	r2, fp, #732
	sub	r1, fp, #96
	mov	r0, r3
.LEHB182:
	bl	_ZStplIcSt11char_traitsIcESaIcEENSt7__cxx1112basic_stringIT_T0_T1_EEOS8_RKS8_
.LEHE182:
	sub	r3, fp, #72
	ldr	r1, [fp, #-36]
	mov	r0, r3
.LEHB183:
	bl	_Z12get_registerB5cxx11j
.LEHE183:
	sub	r3, fp, #144
	sub	r2, fp, #72
	sub	r1, fp, #120
	mov	r0, r3
.LEHB184:
	bl	_ZStplIcSt11char_traitsIcESaIcEENSt7__cxx1112basic_stringIT_T0_T1_EEOS8_S9_
.LEHE184:
	sub	r3, fp, #168
	sub	r1, fp, #144
	ldr	r2, .L479+32
	mov	r0, r3
.LEHB185:
	bl	_ZStplIcSt11char_traitsIcESaIcEENSt7__cxx1112basic_stringIT_T0_T1_EEOS8_PKS5_
.LEHE185:
	sub	r3, fp, #192
	sub	r2, fp, #828
	sub	r1, fp, #168
	mov	r0, r3
.LEHB186:
	bl	_ZStplIcSt11char_traitsIcESaIcEENSt7__cxx1112basic_stringIT_T0_T1_EEOS8_RKS8_
.LEHE186:
	sub	r3, fp, #192
	mov	r1, r3
	ldr	r0, [fp, #-832]
	bl	_ZNSt7__cxx1112basic_stringIcSt11char_traitsIcESaIcEEaSEOS4_
	sub	r3, fp, #192
	mov	r0, r3
	bl	_ZNSt7__cxx1112basic_stringIcSt11char_traitsIcESaIcEED1Ev
	sub	r3, fp, #168
	mov	r0, r3
	bl	_ZNSt7__cxx1112basic_stringIcSt11char_traitsIcESaIcEED1Ev
	sub	r3, fp, #144
	mov	r0, r3
	bl	_ZNSt7__cxx1112basic_stringIcSt11char_traitsIcESaIcEED1Ev
	sub	r3, fp, #72
	mov	r0, r3
	bl	_ZNSt7__cxx1112basic_stringIcSt11char_traitsIcESaIcEED1Ev
	sub	r3, fp, #120
	mov	r0, r3
	bl	_ZNSt7__cxx1112basic_stringIcSt11char_traitsIcESaIcEED1Ev
	sub	r3, fp, #96
	mov	r0, r3
	bl	_ZNSt7__cxx1112basic_stringIcSt11char_traitsIcESaIcEED1Ev
	nop
	sub	r3, fp, #828
	mov	r0, r3
	bl	_ZNSt7__cxx1112basic_stringIcSt11char_traitsIcESaIcEED1Ev
	sub	r3, fp, #804
	mov	r0, r3
	bl	_ZNSt7__cxx1112basic_stringIcSt11char_traitsIcESaIcEED1Ev
	sub	r3, fp, #780
	mov	r0, r3
	bl	_ZNSt7__cxx1112basic_stringIcSt11char_traitsIcESaIcEED1Ev
	sub	r3, fp, #756
	mov	r0, r3
	bl	_ZNSt7__cxx1112basic_stringIcSt11char_traitsIcESaIcEED1Ev
	sub	r3, fp, #732
	mov	r0, r3
	bl	_ZNSt7__cxx1112basic_stringIcSt11char_traitsIcESaIcEED1Ev
	sub	r3, fp, #708
	mov	r0, r3
	bl	_ZNSt7__cxx1112basic_stringIcSt11char_traitsIcESaIcEED1Ev
	b	.L478
.L453:
	sub	r3, fp, #684
	mov	r0, r3
	bl	_ZNSaIcED1Ev
	b	.L424
.L454:
	sub	r3, fp, #680
	mov	r0, r3
	bl	_ZNSaIcED1Ev
	b	.L426
.L455:
	sub	r3, fp, #676
	mov	r0, r3
	bl	_ZNSaIcED1Ev
	b	.L428
.L458:
	sub	r3, fp, #648
	mov	r0, r3
	bl	_ZNSt7__cxx1112basic_stringIcSt11char_traitsIcESaIcEED1Ev
	b	.L430
.L457:
.L430:
	sub	r3, fp, #624
	mov	r0, r3
	bl	_ZNSt7__cxx1112basic_stringIcSt11char_traitsIcESaIcEED1Ev
	b	.L431
.L465:
	sub	r3, fp, #576
	mov	r0, r3
	bl	_ZNSt7__cxx1112basic_stringIcSt11char_traitsIcESaIcEED1Ev
	b	.L433
.L464:
.L433:
	sub	r3, fp, #552
	mov	r0, r3
	bl	_ZNSt7__cxx1112basic_stringIcSt11char_traitsIcESaIcEED1Ev
	b	.L434
.L463:
.L434:
	sub	r3, fp, #432
	mov	r0, r3
	bl	_ZNSt7__cxx1112basic_stringIcSt11char_traitsIcESaIcEED1Ev
	b	.L435
.L462:
.L435:
	sub	r3, fp, #528
	mov	r0, r3
	bl	_ZNSt7__cxx1112basic_stringIcSt11char_traitsIcESaIcEED1Ev
	b	.L436
.L461:
.L436:
	sub	r3, fp, #504
	mov	r0, r3
	bl	_ZNSt7__cxx1112basic_stringIcSt11char_traitsIcESaIcEED1Ev
	b	.L437
.L460:
.L437:
	sub	r3, fp, #480
	mov	r0, r3
	bl	_ZNSt7__cxx1112basic_stringIcSt11char_traitsIcESaIcEED1Ev
	b	.L438
.L459:
.L438:
	sub	r3, fp, #456
	mov	r0, r3
	bl	_ZNSt7__cxx1112basic_stringIcSt11char_traitsIcESaIcEED1Ev
	b	.L431
.L467:
	sub	r3, fp, #384
	mov	r0, r3
	bl	_ZNSt7__cxx1112basic_stringIcSt11char_traitsIcESaIcEED1Ev
	b	.L440
.L466:
.L440:
	sub	r3, fp, #360
	mov	r0, r3
	bl	_ZNSt7__cxx1112basic_stringIcSt11char_traitsIcESaIcEED1Ev
	b	.L431
.L472:
	sub	r3, fp, #216
	mov	r0, r3
	bl	_ZNSt7__cxx1112basic_stringIcSt11char_traitsIcESaIcEED1Ev
	b	.L442
.L471:
.L442:
	sub	r3, fp, #312
	mov	r0, r3
	bl	_ZNSt7__cxx1112basic_stringIcSt11char_traitsIcESaIcEED1Ev
	b	.L443
.L470:
.L443:
	sub	r3, fp, #288
	mov	r0, r3
	bl	_ZNSt7__cxx1112basic_stringIcSt11char_traitsIcESaIcEED1Ev
	b	.L444
.L469:
.L444:
	sub	r3, fp, #264
	mov	r0, r3
	bl	_ZNSt7__cxx1112basic_stringIcSt11char_traitsIcESaIcEED1Ev
	b	.L445
.L468:
.L445:
	sub	r3, fp, #240
	mov	r0, r3
	bl	_ZNSt7__cxx1112basic_stringIcSt11char_traitsIcESaIcEED1Ev
	b	.L431
.L477:
	sub	r3, fp, #168
	mov	r0, r3
	bl	_ZNSt7__cxx1112basic_stringIcSt11char_traitsIcESaIcEED1Ev
	b	.L447
.L476:
.L447:
	sub	r3, fp, #144
	mov	r0, r3
	bl	_ZNSt7__cxx1112basic_stringIcSt11char_traitsIcESaIcEED1Ev
	b	.L448
.L475:
.L448:
	sub	r3, fp, #72
	mov	r0, r3
	bl	_ZNSt7__cxx1112basic_stringIcSt11char_traitsIcESaIcEED1Ev
	b	.L449
.L474:
.L449:
	sub	r3, fp, #120
	mov	r0, r3
	bl	_ZNSt7__cxx1112basic_stringIcSt11char_traitsIcESaIcEED1Ev
	b	.L450
.L473:
.L450:
	sub	r3, fp, #96
	mov	r0, r3
	bl	_ZNSt7__cxx1112basic_stringIcSt11char_traitsIcESaIcEED1Ev
	b	.L431
.L456:
.L431:
	sub	r3, fp, #828
	mov	r0, r3
	bl	_ZNSt7__cxx1112basic_stringIcSt11char_traitsIcESaIcEED1Ev
	sub	r3, fp, #804
	mov	r0, r3
	bl	_ZNSt7__cxx1112basic_stringIcSt11char_traitsIcESaIcEED1Ev
.L428:
	sub	r3, fp, #780
	mov	r0, r3
	bl	_ZNSt7__cxx1112basic_stringIcSt11char_traitsIcESaIcEED1Ev
.L426:
	sub	r3, fp, #756
	mov	r0, r3
	bl	_ZNSt7__cxx1112basic_stringIcSt11char_traitsIcESaIcEED1Ev
.L424:
	sub	r3, fp, #732
	mov	r0, r3
	bl	_ZNSt7__cxx1112basic_stringIcSt11char_traitsIcESaIcEED1Ev
	b	.L451
.L452:
.L451:
	ldr	r0, [fp, #-832]
	bl	_ZNSt7__cxx1112basic_stringIcSt11char_traitsIcESaIcEED1Ev
	sub	r3, fp, #708
	mov	r0, r3
	bl	_ZNSt7__cxx1112basic_stringIcSt11char_traitsIcESaIcEED1Ev
.LEHB187:
	bl	__cxa_end_cleanup
.LEHE187:
.L478:
	ldr	r0, [fp, #-832]
	sub	sp, fp, #8
	@ sp needed
	pop	{r4, fp, pc}
.L480:
	.align	2
.L479:
	.word	.LC7
	.word	.LC30
	.word	.LC31
	.word	.LC32
	.word	.LC33
	.word	.LC34
	.word	.LC28
	.word	.LC35
	.word	.LC8
	.personality	__gxx_personality_v0
	.handlerdata
.LLSDA2702:
	.byte	0xff
	.byte	0xff
	.byte	0x1
	.uleb128 .LLSDACSE2702-.LLSDACSB2702
.LLSDACSB2702:
	.uleb128 .LEHB156-.LFB2702
	.uleb128 .LEHE156-.LEHB156
	.uleb128 0
	.uleb128 0
	.uleb128 .LEHB157-.LFB2702
	.uleb128 .LEHE157-.LEHB157
	.uleb128 .L452-.LFB2702
	.uleb128 0
	.uleb128 .LEHB158-.LFB2702
	.uleb128 .LEHE158-.LEHB158
	.uleb128 .L453-.LFB2702
	.uleb128 0
	.uleb128 .LEHB159-.LFB2702
	.uleb128 .LEHE159-.LEHB159
	.uleb128 .L454-.LFB2702
	.uleb128 0
	.uleb128 .LEHB160-.LFB2702
	.uleb128 .LEHE160-.LEHB160
	.uleb128 .L455-.LFB2702
	.uleb128 0
	.uleb128 .LEHB161-.LFB2702
	.uleb128 .LEHE161-.LEHB161
	.uleb128 .L456-.LFB2702
	.uleb128 0
	.uleb128 .LEHB162-.LFB2702
	.uleb128 .LEHE162-.LEHB162
	.uleb128 .L457-.LFB2702
	.uleb128 0
	.uleb128 .LEHB163-.LFB2702
	.uleb128 .LEHE163-.LEHB163
	.uleb128 .L458-.LFB2702
	.uleb128 0
	.uleb128 .LEHB164-.LFB2702
	.uleb128 .LEHE164-.LEHB164
	.uleb128 .L456-.LFB2702
	.uleb128 0
	.uleb128 .LEHB165-.LFB2702
	.uleb128 .LEHE165-.LEHB165
	.uleb128 .L459-.LFB2702
	.uleb128 0
	.uleb128 .LEHB166-.LFB2702
	.uleb128 .LEHE166-.LEHB166
	.uleb128 .L460-.LFB2702
	.uleb128 0
	.uleb128 .LEHB167-.LFB2702
	.uleb128 .LEHE167-.LEHB167
	.uleb128 .L461-.LFB2702
	.uleb128 0
	.uleb128 .LEHB168-.LFB2702
	.uleb128 .LEHE168-.LEHB168
	.uleb128 .L462-.LFB2702
	.uleb128 0
	.uleb128 .LEHB169-.LFB2702
	.uleb128 .LEHE169-.LEHB169
	.uleb128 .L463-.LFB2702
	.uleb128 0
	.uleb128 .LEHB170-.LFB2702
	.uleb128 .LEHE170-.LEHB170
	.uleb128 .L464-.LFB2702
	.uleb128 0
	.uleb128 .LEHB171-.LFB2702
	.uleb128 .LEHE171-.LEHB171
	.uleb128 .L465-.LFB2702
	.uleb128 0
	.uleb128 .LEHB172-.LFB2702
	.uleb128 .LEHE172-.LEHB172
	.uleb128 .L456-.LFB2702
	.uleb128 0
	.uleb128 .LEHB173-.LFB2702
	.uleb128 .LEHE173-.LEHB173
	.uleb128 .L466-.LFB2702
	.uleb128 0
	.uleb128 .LEHB174-.LFB2702
	.uleb128 .LEHE174-.LEHB174
	.uleb128 .L467-.LFB2702
	.uleb128 0
	.uleb128 .LEHB175-.LFB2702
	.uleb128 .LEHE175-.LEHB175
	.uleb128 .L456-.LFB2702
	.uleb128 0
	.uleb128 .LEHB176-.LFB2702
	.uleb128 .LEHE176-.LEHB176
	.uleb128 .L468-.LFB2702
	.uleb128 0
	.uleb128 .LEHB177-.LFB2702
	.uleb128 .LEHE177-.LEHB177
	.uleb128 .L469-.LFB2702
	.uleb128 0
	.uleb128 .LEHB178-.LFB2702
	.uleb128 .LEHE178-.LEHB178
	.uleb128 .L470-.LFB2702
	.uleb128 0
	.uleb128 .LEHB179-.LFB2702
	.uleb128 .LEHE179-.LEHB179
	.uleb128 .L471-.LFB2702
	.uleb128 0
	.uleb128 .LEHB180-.LFB2702
	.uleb128 .LEHE180-.LEHB180
	.uleb128 .L472-.LFB2702
	.uleb128 0
	.uleb128 .LEHB181-.LFB2702
	.uleb128 .LEHE181-.LEHB181
	.uleb128 .L456-.LFB2702
	.uleb128 0
	.uleb128 .LEHB182-.LFB2702
	.uleb128 .LEHE182-.LEHB182
	.uleb128 .L473-.LFB2702
	.uleb128 0
	.uleb128 .LEHB183-.LFB2702
	.uleb128 .LEHE183-.LEHB183
	.uleb128 .L474-.LFB2702
	.uleb128 0
	.uleb128 .LEHB184-.LFB2702
	.uleb128 .LEHE184-.LEHB184
	.uleb128 .L475-.LFB2702
	.uleb128 0
	.uleb128 .LEHB185-.LFB2702
	.uleb128 .LEHE185-.LEHB185
	.uleb128 .L476-.LFB2702
	.uleb128 0
	.uleb128 .LEHB186-.LFB2702
	.uleb128 .LEHE186-.LEHB186
	.uleb128 .L477-.LFB2702
	.uleb128 0
	.uleb128 .LEHB187-.LFB2702
	.uleb128 .LEHE187-.LEHB187
	.uleb128 0
	.uleb128 0
.LLSDACSE2702:
	.text
	.fnend
	.size	_Z22handle_hwdt_reg_offsetB5cxx11j, .-_Z22handle_hwdt_reg_offsetB5cxx11j
	.section	.rodata
	.align	2
.LC36:
	.ascii	"#\000"
	.align	2
.LC37:
	.ascii	"],#\000"
	.text
	.align	2
	.global	_Z22handle_hwdt_imm_offsetB5cxx11j
	.syntax unified
	.arm
	.fpu vfp
	.type	_Z22handle_hwdt_imm_offsetB5cxx11j, %function
_Z22handle_hwdt_imm_offsetB5cxx11j:
	.fnstart
.LFB2703:
	@ args = 0, pretend = 0, frame = 784
	@ frame_needed = 1, uses_anonymous_args = 0
	push	{r4, fp, lr}
	.save {r4, fp, lr}
	.setfp fp, sp, #8
	add	fp, sp, #8
	.pad #788
	sub	sp, sp, #788
	str	r0, [fp, #-792]
	str	r1, [fp, #-796]
	ldr	r2, [fp, #-796]
	sub	r3, fp, #688
	mov	r1, r2
	mov	r0, r3
.LEHB188:
	bl	_Z18get_condition_codeB5cxx11j
.LEHE188:
	ldr	r0, [fp, #-792]
	bl	_ZNSt7__cxx1112basic_stringIcSt11char_traitsIcESaIcEEC1Ev
	ldr	r3, [fp, #-796]
	lsr	r3, r3, #24
	and	r3, r3, #1
	str	r3, [fp, #-16]
	ldr	r3, [fp, #-796]
	lsr	r3, r3, #23
	and	r3, r3, #1
	str	r3, [fp, #-20]
	ldr	r3, [fp, #-796]
	lsr	r3, r3, #21
	and	r3, r3, #1
	str	r3, [fp, #-24]
	ldr	r3, [fp, #-796]
	lsr	r3, r3, #20
	and	r3, r3, #1
	str	r3, [fp, #-28]
	ldr	r3, [fp, #-796]
	lsr	r3, r3, #16
	and	r3, r3, #15
	str	r3, [fp, #-32]
	ldr	r3, [fp, #-796]
	lsr	r3, r3, #12
	and	r3, r3, #15
	str	r3, [fp, #-36]
	ldr	r3, [fp, #-796]
	lsr	r3, r3, #8
	and	r3, r3, #15
	str	r3, [fp, #-40]
	ldr	r3, [fp, #-796]
	lsr	r3, r3, #6
	and	r3, r3, #1
	str	r3, [fp, #-44]
	ldr	r3, [fp, #-796]
	lsr	r3, r3, #5
	and	r3, r3, #1
	str	r3, [fp, #-48]
	ldr	r3, [fp, #-796]
	and	r3, r3, #15
	str	r3, [fp, #-52]
	ldr	r3, [fp, #-40]
	lsl	r3, r3, #4
	mov	r2, r3
	ldr	r3, [fp, #-52]
	orr	r3, r2, r3
	str	r3, [fp, #-56]
	sub	r3, fp, #712
	ldr	r2, [fp, #-48]
	ldr	r1, [fp, #-44]
	mov	r0, r3
.LEHB189:
	bl	_Z11get_sb_sh_hB5cxx11jj
.LEHE189:
	ldr	r3, [fp, #-28]
	cmp	r3, #1
	bne	.L482
	ldr	r4, .L543
	b	.L483
.L482:
	ldr	r4, .L543+4
.L483:
	sub	r3, fp, #664
	mov	r0, r3
	bl	_ZNSaIcEC1Ev
	sub	r2, fp, #664
	sub	r3, fp, #736
	mov	r1, r4
	mov	r0, r3
.LEHB190:
	bl	_ZNSt7__cxx1112basic_stringIcSt11char_traitsIcESaIcEEC1EPKcRKS3_
.LEHE190:
	sub	r3, fp, #664
	mov	r0, r3
	bl	_ZNSaIcED1Ev
	ldr	r3, [fp, #-24]
	cmp	r3, #1
	bne	.L484
	ldr	r4, .L543+8
	b	.L485
.L484:
	ldr	r4, .L543+12
.L485:
	sub	r3, fp, #660
	mov	r0, r3
	bl	_ZNSaIcEC1Ev
	sub	r2, fp, #660
	sub	r3, fp, #760
	mov	r1, r4
	mov	r0, r3
.LEHB191:
	bl	_ZNSt7__cxx1112basic_stringIcSt11char_traitsIcESaIcEEC1EPKcRKS3_
.LEHE191:
	sub	r3, fp, #660
	mov	r0, r3
	bl	_ZNSaIcED1Ev
	sub	r3, fp, #784
	mov	r0, r3
	bl	_ZNSt7__cxx1112basic_stringIcSt11char_traitsIcESaIcEEC1Ev
	ldr	r3, [fp, #-16]
	cmp	r3, #0
	beq	.L486
	ldr	r3, [fp, #-56]
	cmp	r3, #0
	bne	.L487
	sub	r3, fp, #608
	ldr	r1, [fp, #-32]
	mov	r0, r3
.LEHB192:
	bl	_Z12get_registerB5cxx11j
.LEHE192:
	sub	r3, fp, #632
	sub	r2, fp, #608
	ldr	r1, .L543+16
	mov	r0, r3
.LEHB193:
	bl	_ZStplIcSt11char_traitsIcESaIcEENSt7__cxx1112basic_stringIT_T0_T1_EEPKS5_OS8_
.LEHE193:
	sub	r3, fp, #656
	sub	r1, fp, #632
	ldr	r2, .L543+20
	mov	r0, r3
.LEHB194:
	bl	_ZStplIcSt11char_traitsIcESaIcEENSt7__cxx1112basic_stringIT_T0_T1_EEOS8_PKS5_
.LEHE194:
	sub	r2, fp, #656
	sub	r3, fp, #784
	mov	r1, r2
	mov	r0, r3
	bl	_ZNSt7__cxx1112basic_stringIcSt11char_traitsIcESaIcEEaSEOS4_
	sub	r3, fp, #656
	mov	r0, r3
	bl	_ZNSt7__cxx1112basic_stringIcSt11char_traitsIcESaIcEED1Ev
	sub	r3, fp, #632
	mov	r0, r3
	bl	_ZNSt7__cxx1112basic_stringIcSt11char_traitsIcESaIcEED1Ev
	sub	r3, fp, #608
	mov	r0, r3
	bl	_ZNSt7__cxx1112basic_stringIcSt11char_traitsIcESaIcEED1Ev
	b	.L489
.L487:
	sub	r3, fp, #440
	ldr	r1, [fp, #-32]
	mov	r0, r3
.LEHB195:
	bl	_Z12get_registerB5cxx11j
.LEHE195:
	sub	r3, fp, #464
	sub	r2, fp, #440
	ldr	r1, .L543+16
	mov	r0, r3
.LEHB196:
	bl	_ZStplIcSt11char_traitsIcESaIcEENSt7__cxx1112basic_stringIT_T0_T1_EEPKS5_OS8_
.LEHE196:
	sub	r3, fp, #488
	sub	r1, fp, #464
	mov	r2, #44
	mov	r0, r3
.LEHB197:
	bl	_ZStplIcSt11char_traitsIcESaIcEENSt7__cxx1112basic_stringIT_T0_T1_EEOS8_S5_
.LEHE197:
	sub	r3, fp, #512
	sub	r1, fp, #488
	ldr	r2, .L543+24
	mov	r0, r3
.LEHB198:
	bl	_ZStplIcSt11char_traitsIcESaIcEENSt7__cxx1112basic_stringIT_T0_T1_EEOS8_PKS5_
.LEHE198:
	sub	r3, fp, #416
	ldr	r1, [fp, #-56]
	mov	r0, r3
.LEHB199:
	bl	_ZNSt7__cxx119to_stringEi
.LEHE199:
	sub	r3, fp, #536
	sub	r2, fp, #416
	sub	r1, fp, #512
	mov	r0, r3
.LEHB200:
	bl	_ZStplIcSt11char_traitsIcESaIcEENSt7__cxx1112basic_stringIT_T0_T1_EEOS8_S9_
.LEHE200:
	sub	r3, fp, #560
	sub	r1, fp, #536
	ldr	r2, .L543+20
	mov	r0, r3
.LEHB201:
	bl	_ZStplIcSt11char_traitsIcESaIcEENSt7__cxx1112basic_stringIT_T0_T1_EEOS8_PKS5_
.LEHE201:
	sub	r3, fp, #584
	sub	r2, fp, #760
	sub	r1, fp, #560
	mov	r0, r3
.LEHB202:
	bl	_ZStplIcSt11char_traitsIcESaIcEENSt7__cxx1112basic_stringIT_T0_T1_EEOS8_RKS8_
.LEHE202:
	sub	r2, fp, #584
	sub	r3, fp, #784
	mov	r1, r2
	mov	r0, r3
	bl	_ZNSt7__cxx1112basic_stringIcSt11char_traitsIcESaIcEEaSEOS4_
	sub	r3, fp, #584
	mov	r0, r3
	bl	_ZNSt7__cxx1112basic_stringIcSt11char_traitsIcESaIcEED1Ev
	sub	r3, fp, #560
	mov	r0, r3
	bl	_ZNSt7__cxx1112basic_stringIcSt11char_traitsIcESaIcEED1Ev
	sub	r3, fp, #536
	mov	r0, r3
	bl	_ZNSt7__cxx1112basic_stringIcSt11char_traitsIcESaIcEED1Ev
	sub	r3, fp, #416
	mov	r0, r3
	bl	_ZNSt7__cxx1112basic_stringIcSt11char_traitsIcESaIcEED1Ev
	sub	r3, fp, #512
	mov	r0, r3
	bl	_ZNSt7__cxx1112basic_stringIcSt11char_traitsIcESaIcEED1Ev
	sub	r3, fp, #488
	mov	r0, r3
	bl	_ZNSt7__cxx1112basic_stringIcSt11char_traitsIcESaIcEED1Ev
	sub	r3, fp, #464
	mov	r0, r3
	bl	_ZNSt7__cxx1112basic_stringIcSt11char_traitsIcESaIcEED1Ev
	sub	r3, fp, #440
	mov	r0, r3
	bl	_ZNSt7__cxx1112basic_stringIcSt11char_traitsIcESaIcEED1Ev
	b	.L489
.L486:
	ldr	r3, [fp, #-56]
	cmp	r3, #0
	bne	.L490
	sub	r3, fp, #344
	ldr	r1, [fp, #-32]
	mov	r0, r3
.LEHB203:
	bl	_Z12get_registerB5cxx11j
.LEHE203:
	sub	r3, fp, #368
	sub	r2, fp, #344
	ldr	r1, .L543+16
	mov	r0, r3
.LEHB204:
	bl	_ZStplIcSt11char_traitsIcESaIcEENSt7__cxx1112basic_stringIT_T0_T1_EEPKS5_OS8_
.LEHE204:
	sub	r3, fp, #392
	sub	r1, fp, #368
	ldr	r2, .L543+20
	mov	r0, r3
.LEHB205:
	bl	_ZStplIcSt11char_traitsIcESaIcEENSt7__cxx1112basic_stringIT_T0_T1_EEOS8_PKS5_
.LEHE205:
	sub	r2, fp, #392
	sub	r3, fp, #784
	mov	r1, r2
	mov	r0, r3
	bl	_ZNSt7__cxx1112basic_stringIcSt11char_traitsIcESaIcEEaSEOS4_
	sub	r3, fp, #392
	mov	r0, r3
	bl	_ZNSt7__cxx1112basic_stringIcSt11char_traitsIcESaIcEED1Ev
	sub	r3, fp, #368
	mov	r0, r3
	bl	_ZNSt7__cxx1112basic_stringIcSt11char_traitsIcESaIcEED1Ev
	sub	r3, fp, #344
	mov	r0, r3
	bl	_ZNSt7__cxx1112basic_stringIcSt11char_traitsIcESaIcEED1Ev
	b	.L489
.L490:
	sub	r3, fp, #248
	ldr	r1, [fp, #-32]
	mov	r0, r3
.LEHB206:
	bl	_Z12get_registerB5cxx11j
.LEHE206:
	sub	r3, fp, #272
	sub	r2, fp, #248
	ldr	r1, .L543+16
	mov	r0, r3
.LEHB207:
	bl	_ZStplIcSt11char_traitsIcESaIcEENSt7__cxx1112basic_stringIT_T0_T1_EEPKS5_OS8_
.LEHE207:
	sub	r3, fp, #296
	sub	r1, fp, #272
	ldr	r2, .L543+28
	mov	r0, r3
.LEHB208:
	bl	_ZStplIcSt11char_traitsIcESaIcEENSt7__cxx1112basic_stringIT_T0_T1_EEOS8_PKS5_
.LEHE208:
	sub	r3, fp, #224
	ldr	r1, [fp, #-56]
	mov	r0, r3
.LEHB209:
	bl	_ZNSt7__cxx119to_stringEi
.LEHE209:
	sub	r3, fp, #320
	sub	r2, fp, #224
	sub	r1, fp, #296
	mov	r0, r3
.LEHB210:
	bl	_ZStplIcSt11char_traitsIcESaIcEENSt7__cxx1112basic_stringIT_T0_T1_EEOS8_S9_
.LEHE210:
	sub	r2, fp, #320
	sub	r3, fp, #784
	mov	r1, r2
	mov	r0, r3
	bl	_ZNSt7__cxx1112basic_stringIcSt11char_traitsIcESaIcEEaSEOS4_
	sub	r3, fp, #320
	mov	r0, r3
	bl	_ZNSt7__cxx1112basic_stringIcSt11char_traitsIcESaIcEED1Ev
	sub	r3, fp, #224
	mov	r0, r3
	bl	_ZNSt7__cxx1112basic_stringIcSt11char_traitsIcESaIcEED1Ev
	sub	r3, fp, #296
	mov	r0, r3
	bl	_ZNSt7__cxx1112basic_stringIcSt11char_traitsIcESaIcEED1Ev
	sub	r3, fp, #272
	mov	r0, r3
	bl	_ZNSt7__cxx1112basic_stringIcSt11char_traitsIcESaIcEED1Ev
	sub	r3, fp, #248
	mov	r0, r3
	bl	_ZNSt7__cxx1112basic_stringIcSt11char_traitsIcESaIcEED1Ev
.L489:
	sub	r3, fp, #104
	sub	r2, fp, #688
	sub	r1, fp, #736
	mov	r0, r3
.LEHB211:
	bl	_ZStplIcSt11char_traitsIcESaIcEENSt7__cxx1112basic_stringIT_T0_T1_EERKS8_SA_
.LEHE211:
	sub	r3, fp, #128
	sub	r2, fp, #712
	sub	r1, fp, #104
	mov	r0, r3
.LEHB212:
	bl	_ZStplIcSt11char_traitsIcESaIcEENSt7__cxx1112basic_stringIT_T0_T1_EEOS8_RKS8_
.LEHE212:
	sub	r3, fp, #80
	ldr	r1, [fp, #-36]
	mov	r0, r3
.LEHB213:
	bl	_Z12get_registerB5cxx11j
.LEHE213:
	sub	r3, fp, #152
	sub	r2, fp, #80
	sub	r1, fp, #128
	mov	r0, r3
.LEHB214:
	bl	_ZStplIcSt11char_traitsIcESaIcEENSt7__cxx1112basic_stringIT_T0_T1_EEOS8_S9_
.LEHE214:
	sub	r3, fp, #176
	sub	r1, fp, #152
	ldr	r2, .L543+32
	mov	r0, r3
.LEHB215:
	bl	_ZStplIcSt11char_traitsIcESaIcEENSt7__cxx1112basic_stringIT_T0_T1_EEOS8_PKS5_
.LEHE215:
	sub	r3, fp, #200
	sub	r2, fp, #784
	sub	r1, fp, #176
	mov	r0, r3
.LEHB216:
	bl	_ZStplIcSt11char_traitsIcESaIcEENSt7__cxx1112basic_stringIT_T0_T1_EEOS8_RKS8_
.LEHE216:
	sub	r3, fp, #200
	mov	r1, r3
	ldr	r0, [fp, #-792]
	bl	_ZNSt7__cxx1112basic_stringIcSt11char_traitsIcESaIcEEaSEOS4_
	sub	r3, fp, #200
	mov	r0, r3
	bl	_ZNSt7__cxx1112basic_stringIcSt11char_traitsIcESaIcEED1Ev
	sub	r3, fp, #176
	mov	r0, r3
	bl	_ZNSt7__cxx1112basic_stringIcSt11char_traitsIcESaIcEED1Ev
	sub	r3, fp, #152
	mov	r0, r3
	bl	_ZNSt7__cxx1112basic_stringIcSt11char_traitsIcESaIcEED1Ev
	sub	r3, fp, #80
	mov	r0, r3
	bl	_ZNSt7__cxx1112basic_stringIcSt11char_traitsIcESaIcEED1Ev
	sub	r3, fp, #128
	mov	r0, r3
	bl	_ZNSt7__cxx1112basic_stringIcSt11char_traitsIcESaIcEED1Ev
	sub	r3, fp, #104
	mov	r0, r3
	bl	_ZNSt7__cxx1112basic_stringIcSt11char_traitsIcESaIcEED1Ev
	nop
	sub	r3, fp, #784
	mov	r0, r3
	bl	_ZNSt7__cxx1112basic_stringIcSt11char_traitsIcESaIcEED1Ev
	sub	r3, fp, #760
	mov	r0, r3
	bl	_ZNSt7__cxx1112basic_stringIcSt11char_traitsIcESaIcEED1Ev
	sub	r3, fp, #736
	mov	r0, r3
	bl	_ZNSt7__cxx1112basic_stringIcSt11char_traitsIcESaIcEED1Ev
	sub	r3, fp, #712
	mov	r0, r3
	bl	_ZNSt7__cxx1112basic_stringIcSt11char_traitsIcESaIcEED1Ev
	sub	r3, fp, #688
	mov	r0, r3
	bl	_ZNSt7__cxx1112basic_stringIcSt11char_traitsIcESaIcEED1Ev
	b	.L542
.L519:
	sub	r3, fp, #664
	mov	r0, r3
	bl	_ZNSaIcED1Ev
	b	.L493
.L520:
	sub	r3, fp, #660
	mov	r0, r3
	bl	_ZNSaIcED1Ev
	b	.L495
.L523:
	sub	r3, fp, #632
	mov	r0, r3
	bl	_ZNSt7__cxx1112basic_stringIcSt11char_traitsIcESaIcEED1Ev
	b	.L497
.L522:
.L497:
	sub	r3, fp, #608
	mov	r0, r3
	bl	_ZNSt7__cxx1112basic_stringIcSt11char_traitsIcESaIcEED1Ev
	b	.L498
.L530:
	sub	r3, fp, #560
	mov	r0, r3
	bl	_ZNSt7__cxx1112basic_stringIcSt11char_traitsIcESaIcEED1Ev
	b	.L500
.L529:
.L500:
	sub	r3, fp, #536
	mov	r0, r3
	bl	_ZNSt7__cxx1112basic_stringIcSt11char_traitsIcESaIcEED1Ev
	b	.L501
.L528:
.L501:
	sub	r3, fp, #416
	mov	r0, r3
	bl	_ZNSt7__cxx1112basic_stringIcSt11char_traitsIcESaIcEED1Ev
	b	.L502
.L527:
.L502:
	sub	r3, fp, #512
	mov	r0, r3
	bl	_ZNSt7__cxx1112basic_stringIcSt11char_traitsIcESaIcEED1Ev
	b	.L503
.L526:
.L503:
	sub	r3, fp, #488
	mov	r0, r3
	bl	_ZNSt7__cxx1112basic_stringIcSt11char_traitsIcESaIcEED1Ev
	b	.L504
.L525:
.L504:
	sub	r3, fp, #464
	mov	r0, r3
	bl	_ZNSt7__cxx1112basic_stringIcSt11char_traitsIcESaIcEED1Ev
	b	.L505
.L524:
.L505:
	sub	r3, fp, #440
	mov	r0, r3
	bl	_ZNSt7__cxx1112basic_stringIcSt11char_traitsIcESaIcEED1Ev
	b	.L498
.L532:
	sub	r3, fp, #368
	mov	r0, r3
	bl	_ZNSt7__cxx1112basic_stringIcSt11char_traitsIcESaIcEED1Ev
	b	.L507
.L531:
.L507:
	sub	r3, fp, #344
	mov	r0, r3
	bl	_ZNSt7__cxx1112basic_stringIcSt11char_traitsIcESaIcEED1Ev
	b	.L498
.L536:
	sub	r3, fp, #224
	mov	r0, r3
	bl	_ZNSt7__cxx1112basic_stringIcSt11char_traitsIcESaIcEED1Ev
	b	.L509
.L535:
.L509:
	sub	r3, fp, #296
	mov	r0, r3
	bl	_ZNSt7__cxx1112basic_stringIcSt11char_traitsIcESaIcEED1Ev
	b	.L510
.L534:
.L510:
	sub	r3, fp, #272
	mov	r0, r3
	bl	_ZNSt7__cxx1112basic_stringIcSt11char_traitsIcESaIcEED1Ev
	b	.L511
.L533:
.L511:
	sub	r3, fp, #248
	mov	r0, r3
	bl	_ZNSt7__cxx1112basic_stringIcSt11char_traitsIcESaIcEED1Ev
	b	.L498
.L541:
	sub	r3, fp, #176
	mov	r0, r3
	bl	_ZNSt7__cxx1112basic_stringIcSt11char_traitsIcESaIcEED1Ev
	b	.L513
.L540:
.L513:
	sub	r3, fp, #152
	mov	r0, r3
	bl	_ZNSt7__cxx1112basic_stringIcSt11char_traitsIcESaIcEED1Ev
	b	.L514
.L539:
.L514:
	sub	r3, fp, #80
	mov	r0, r3
	bl	_ZNSt7__cxx1112basic_stringIcSt11char_traitsIcESaIcEED1Ev
	b	.L515
.L538:
.L515:
	sub	r3, fp, #128
	mov	r0, r3
	bl	_ZNSt7__cxx1112basic_stringIcSt11char_traitsIcESaIcEED1Ev
	b	.L516
.L537:
.L516:
	sub	r3, fp, #104
	mov	r0, r3
	bl	_ZNSt7__cxx1112basic_stringIcSt11char_traitsIcESaIcEED1Ev
	b	.L498
.L521:
.L498:
	sub	r3, fp, #784
	mov	r0, r3
	bl	_ZNSt7__cxx1112basic_stringIcSt11char_traitsIcESaIcEED1Ev
	sub	r3, fp, #760
	mov	r0, r3
	bl	_ZNSt7__cxx1112basic_stringIcSt11char_traitsIcESaIcEED1Ev
.L495:
	sub	r3, fp, #736
	mov	r0, r3
	bl	_ZNSt7__cxx1112basic_stringIcSt11char_traitsIcESaIcEED1Ev
.L493:
	sub	r3, fp, #712
	mov	r0, r3
	bl	_ZNSt7__cxx1112basic_stringIcSt11char_traitsIcESaIcEED1Ev
	b	.L517
.L518:
.L517:
	ldr	r0, [fp, #-792]
	bl	_ZNSt7__cxx1112basic_stringIcSt11char_traitsIcESaIcEED1Ev
	sub	r3, fp, #688
	mov	r0, r3
	bl	_ZNSt7__cxx1112basic_stringIcSt11char_traitsIcESaIcEED1Ev
.LEHB217:
	bl	__cxa_end_cleanup
.LEHE217:
.L542:
	ldr	r0, [fp, #-792]
	sub	sp, fp, #8
	@ sp needed
	pop	{r4, fp, pc}
.L544:
	.align	2
.L543:
	.word	.LC31
	.word	.LC32
	.word	.LC33
	.word	.LC7
	.word	.LC34
	.word	.LC28
	.word	.LC36
	.word	.LC37
	.word	.LC8
	.personality	__gxx_personality_v0
	.handlerdata
.LLSDA2703:
	.byte	0xff
	.byte	0xff
	.byte	0x1
	.uleb128 .LLSDACSE2703-.LLSDACSB2703
.LLSDACSB2703:
	.uleb128 .LEHB188-.LFB2703
	.uleb128 .LEHE188-.LEHB188
	.uleb128 0
	.uleb128 0
	.uleb128 .LEHB189-.LFB2703
	.uleb128 .LEHE189-.LEHB189
	.uleb128 .L518-.LFB2703
	.uleb128 0
	.uleb128 .LEHB190-.LFB2703
	.uleb128 .LEHE190-.LEHB190
	.uleb128 .L519-.LFB2703
	.uleb128 0
	.uleb128 .LEHB191-.LFB2703
	.uleb128 .LEHE191-.LEHB191
	.uleb128 .L520-.LFB2703
	.uleb128 0
	.uleb128 .LEHB192-.LFB2703
	.uleb128 .LEHE192-.LEHB192
	.uleb128 .L521-.LFB2703
	.uleb128 0
	.uleb128 .LEHB193-.LFB2703
	.uleb128 .LEHE193-.LEHB193
	.uleb128 .L522-.LFB2703
	.uleb128 0
	.uleb128 .LEHB194-.LFB2703
	.uleb128 .LEHE194-.LEHB194
	.uleb128 .L523-.LFB2703
	.uleb128 0
	.uleb128 .LEHB195-.LFB2703
	.uleb128 .LEHE195-.LEHB195
	.uleb128 .L521-.LFB2703
	.uleb128 0
	.uleb128 .LEHB196-.LFB2703
	.uleb128 .LEHE196-.LEHB196
	.uleb128 .L524-.LFB2703
	.uleb128 0
	.uleb128 .LEHB197-.LFB2703
	.uleb128 .LEHE197-.LEHB197
	.uleb128 .L525-.LFB2703
	.uleb128 0
	.uleb128 .LEHB198-.LFB2703
	.uleb128 .LEHE198-.LEHB198
	.uleb128 .L526-.LFB2703
	.uleb128 0
	.uleb128 .LEHB199-.LFB2703
	.uleb128 .LEHE199-.LEHB199
	.uleb128 .L527-.LFB2703
	.uleb128 0
	.uleb128 .LEHB200-.LFB2703
	.uleb128 .LEHE200-.LEHB200
	.uleb128 .L528-.LFB2703
	.uleb128 0
	.uleb128 .LEHB201-.LFB2703
	.uleb128 .LEHE201-.LEHB201
	.uleb128 .L529-.LFB2703
	.uleb128 0
	.uleb128 .LEHB202-.LFB2703
	.uleb128 .LEHE202-.LEHB202
	.uleb128 .L530-.LFB2703
	.uleb128 0
	.uleb128 .LEHB203-.LFB2703
	.uleb128 .LEHE203-.LEHB203
	.uleb128 .L521-.LFB2703
	.uleb128 0
	.uleb128 .LEHB204-.LFB2703
	.uleb128 .LEHE204-.LEHB204
	.uleb128 .L531-.LFB2703
	.uleb128 0
	.uleb128 .LEHB205-.LFB2703
	.uleb128 .LEHE205-.LEHB205
	.uleb128 .L532-.LFB2703
	.uleb128 0
	.uleb128 .LEHB206-.LFB2703
	.uleb128 .LEHE206-.LEHB206
	.uleb128 .L521-.LFB2703
	.uleb128 0
	.uleb128 .LEHB207-.LFB2703
	.uleb128 .LEHE207-.LEHB207
	.uleb128 .L533-.LFB2703
	.uleb128 0
	.uleb128 .LEHB208-.LFB2703
	.uleb128 .LEHE208-.LEHB208
	.uleb128 .L534-.LFB2703
	.uleb128 0
	.uleb128 .LEHB209-.LFB2703
	.uleb128 .LEHE209-.LEHB209
	.uleb128 .L535-.LFB2703
	.uleb128 0
	.uleb128 .LEHB210-.LFB2703
	.uleb128 .LEHE210-.LEHB210
	.uleb128 .L536-.LFB2703
	.uleb128 0
	.uleb128 .LEHB211-.LFB2703
	.uleb128 .LEHE211-.LEHB211
	.uleb128 .L521-.LFB2703
	.uleb128 0
	.uleb128 .LEHB212-.LFB2703
	.uleb128 .LEHE212-.LEHB212
	.uleb128 .L537-.LFB2703
	.uleb128 0
	.uleb128 .LEHB213-.LFB2703
	.uleb128 .LEHE213-.LEHB213
	.uleb128 .L538-.LFB2703
	.uleb128 0
	.uleb128 .LEHB214-.LFB2703
	.uleb128 .LEHE214-.LEHB214
	.uleb128 .L539-.LFB2703
	.uleb128 0
	.uleb128 .LEHB215-.LFB2703
	.uleb128 .LEHE215-.LEHB215
	.uleb128 .L540-.LFB2703
	.uleb128 0
	.uleb128 .LEHB216-.LFB2703
	.uleb128 .LEHE216-.LEHB216
	.uleb128 .L541-.LFB2703
	.uleb128 0
	.uleb128 .LEHB217-.LFB2703
	.uleb128 .LEHE217-.LEHB217
	.uleb128 0
	.uleb128 0
.LLSDACSE2703:
	.text
	.fnend
	.size	_Z22handle_hwdt_imm_offsetB5cxx11j, .-_Z22handle_hwdt_imm_offsetB5cxx11j
	.align	2
	.global	_Z9get_shiftjjjNSt7__cxx1112basic_stringIcSt11char_traitsIcESaIcEEE
	.syntax unified
	.arm
	.fpu vfp
	.type	_Z9get_shiftjjjNSt7__cxx1112basic_stringIcSt11char_traitsIcESaIcEEE, %function
_Z9get_shiftjjjNSt7__cxx1112basic_stringIcSt11char_traitsIcESaIcEEE:
	.fnstart
.LFB2704:
	@ args = 4, pretend = 0, frame = 160
	@ frame_needed = 1, uses_anonymous_args = 0
	push	{fp, lr}
	.save {fp, lr}
	.setfp fp, sp, #4
	add	fp, sp, #4
	.pad #160
	sub	sp, sp, #160
	str	r0, [fp, #-152]
	str	r1, [fp, #-156]
	str	r2, [fp, #-160]
	str	r3, [fp, #-164]
	ldr	r0, [fp, #-152]
	bl	_ZNSt7__cxx1112basic_stringIcSt11char_traitsIcESaIcEEC1Ev
	ldr	r3, [fp, #-156]
	cmp	r3, #0
	beq	.L546
	sub	r3, fp, #100
	ldr	r1, [fp, #-164]
	mov	r0, r3
.LEHB218:
	bl	_Z12get_registerB5cxx11j
.LEHE218:
	sub	r3, fp, #124
	sub	r2, fp, #100
	ldr	r1, [fp, #4]
	mov	r0, r3
.LEHB219:
	bl	_ZStplIcSt11char_traitsIcESaIcEENSt7__cxx1112basic_stringIT_T0_T1_EERKS8_OS8_
.LEHE219:
	sub	r3, fp, #76
	ldr	r1, [fp, #-160]
	mov	r0, r3
.LEHB220:
	bl	_Z5shiftB5cxx11j
.LEHE220:
	sub	r3, fp, #148
	sub	r2, fp, #76
	sub	r1, fp, #124
	mov	r0, r3
.LEHB221:
	bl	_ZStplIcSt11char_traitsIcESaIcEENSt7__cxx1112basic_stringIT_T0_T1_EEOS8_S9_
.LEHE221:
	sub	r3, fp, #148
	mov	r1, r3
	ldr	r0, [fp, #-152]
	bl	_ZNSt7__cxx1112basic_stringIcSt11char_traitsIcESaIcEEaSEOS4_
	sub	r3, fp, #148
	mov	r0, r3
	bl	_ZNSt7__cxx1112basic_stringIcSt11char_traitsIcESaIcEED1Ev
	sub	r3, fp, #76
	mov	r0, r3
	bl	_ZNSt7__cxx1112basic_stringIcSt11char_traitsIcESaIcEED1Ev
	sub	r3, fp, #124
	mov	r0, r3
	bl	_ZNSt7__cxx1112basic_stringIcSt11char_traitsIcESaIcEED1Ev
	sub	r3, fp, #100
	mov	r0, r3
	bl	_ZNSt7__cxx1112basic_stringIcSt11char_traitsIcESaIcEED1Ev
	b	.L545
.L546:
	sub	r3, fp, #28
	ldr	r1, [fp, #-160]
	mov	r0, r3
.LEHB222:
	bl	_ZNSt7__cxx119to_stringEj
.LEHE222:
	sub	r3, fp, #52
	sub	r2, fp, #28
	ldr	r1, .L559
	mov	r0, r3
.LEHB223:
	bl	_ZStplIcSt11char_traitsIcESaIcEENSt7__cxx1112basic_stringIT_T0_T1_EEPKS5_OS8_
.LEHE223:
	sub	r3, fp, #52
	mov	r1, r3
	ldr	r0, [fp, #-152]
	bl	_ZNSt7__cxx1112basic_stringIcSt11char_traitsIcESaIcEEaSEOS4_
	sub	r3, fp, #52
	mov	r0, r3
	bl	_ZNSt7__cxx1112basic_stringIcSt11char_traitsIcESaIcEED1Ev
	sub	r3, fp, #28
	mov	r0, r3
	bl	_ZNSt7__cxx1112basic_stringIcSt11char_traitsIcESaIcEED1Ev
	b	.L545
.L557:
	sub	r3, fp, #76
	mov	r0, r3
	bl	_ZNSt7__cxx1112basic_stringIcSt11char_traitsIcESaIcEED1Ev
	b	.L550
.L556:
.L550:
	sub	r3, fp, #124
	mov	r0, r3
	bl	_ZNSt7__cxx1112basic_stringIcSt11char_traitsIcESaIcEED1Ev
	b	.L551
.L555:
.L551:
	sub	r3, fp, #100
	mov	r0, r3
	bl	_ZNSt7__cxx1112basic_stringIcSt11char_traitsIcESaIcEED1Ev
	b	.L552
.L558:
	sub	r3, fp, #28
	mov	r0, r3
	bl	_ZNSt7__cxx1112basic_stringIcSt11char_traitsIcESaIcEED1Ev
	b	.L552
.L554:
.L552:
	ldr	r0, [fp, #-152]
	bl	_ZNSt7__cxx1112basic_stringIcSt11char_traitsIcESaIcEED1Ev
.LEHB224:
	bl	__cxa_end_cleanup
.LEHE224:
.L545:
	ldr	r0, [fp, #-152]
	sub	sp, fp, #4
	@ sp needed
	pop	{fp, pc}
.L560:
	.align	2
.L559:
	.word	.LC36
	.personality	__gxx_personality_v0
	.handlerdata
.LLSDA2704:
	.byte	0xff
	.byte	0xff
	.byte	0x1
	.uleb128 .LLSDACSE2704-.LLSDACSB2704
.LLSDACSB2704:
	.uleb128 .LEHB218-.LFB2704
	.uleb128 .LEHE218-.LEHB218
	.uleb128 .L554-.LFB2704
	.uleb128 0
	.uleb128 .LEHB219-.LFB2704
	.uleb128 .LEHE219-.LEHB219
	.uleb128 .L555-.LFB2704
	.uleb128 0
	.uleb128 .LEHB220-.LFB2704
	.uleb128 .LEHE220-.LEHB220
	.uleb128 .L556-.LFB2704
	.uleb128 0
	.uleb128 .LEHB221-.LFB2704
	.uleb128 .LEHE221-.LEHB221
	.uleb128 .L557-.LFB2704
	.uleb128 0
	.uleb128 .LEHB222-.LFB2704
	.uleb128 .LEHE222-.LEHB222
	.uleb128 .L554-.LFB2704
	.uleb128 0
	.uleb128 .LEHB223-.LFB2704
	.uleb128 .LEHE223-.LEHB223
	.uleb128 .L558-.LFB2704
	.uleb128 0
	.uleb128 .LEHB224-.LFB2704
	.uleb128 .LEHE224-.LEHB224
	.uleb128 0
	.uleb128 0
.LLSDACSE2704:
	.text
	.fnend
	.size	_Z9get_shiftjjjNSt7__cxx1112basic_stringIcSt11char_traitsIcESaIcEEE, .-_Z9get_shiftjjjNSt7__cxx1112basic_stringIcSt11char_traitsIcESaIcEEE
	.section	.rodata
	.align	2
.LC38:
	.ascii	"B\000"
	.text
	.align	2
	.global	_Z27handle_single_data_transferB5cxx11j
	.syntax unified
	.arm
	.fpu vfp
	.type	_Z27handle_single_data_transferB5cxx11j, %function
_Z27handle_single_data_transferB5cxx11j:
	.fnstart
.LFB2705:
	@ args = 0, pretend = 0, frame = 832
	@ frame_needed = 1, uses_anonymous_args = 0
	push	{r4, fp, lr}
	.save {r4, fp, lr}
	.setfp fp, sp, #8
	add	fp, sp, #8
	.pad #844
	sub	sp, sp, #844
	str	r0, [fp, #-840]
	str	r1, [fp, #-844]
	ldr	r2, [fp, #-844]
	sub	r3, fp, #716
	mov	r1, r2
	mov	r0, r3
.LEHB225:
	bl	_Z18get_condition_codeB5cxx11j
.LEHE225:
	ldr	r0, [fp, #-840]
	bl	_ZNSt7__cxx1112basic_stringIcSt11char_traitsIcESaIcEEC1Ev
	ldr	r3, [fp, #-844]
	lsr	r3, r3, #25
	and	r3, r3, #1
	str	r3, [fp, #-16]
	ldr	r3, [fp, #-844]
	lsr	r3, r3, #24
	and	r3, r3, #1
	str	r3, [fp, #-20]
	ldr	r3, [fp, #-844]
	lsr	r3, r3, #23
	and	r3, r3, #1
	str	r3, [fp, #-24]
	ldr	r3, [fp, #-844]
	lsr	r3, r3, #22
	and	r3, r3, #1
	str	r3, [fp, #-28]
	ldr	r3, [fp, #-844]
	lsr	r3, r3, #21
	and	r3, r3, #1
	str	r3, [fp, #-32]
	ldr	r3, [fp, #-844]
	lsr	r3, r3, #20
	and	r3, r3, #1
	str	r3, [fp, #-36]
	ldr	r3, [fp, #-844]
	lsr	r3, r3, #16
	and	r3, r3, #15
	str	r3, [fp, #-40]
	ldr	r3, [fp, #-844]
	lsr	r3, r3, #12
	and	r3, r3, #15
	str	r3, [fp, #-44]
	ldr	r3, [fp, #-844]
	lsr	r3, r3, #4
	uxtb	r3, r3
	str	r3, [fp, #-48]
	ldr	r3, [fp, #-844]
	and	r3, r3, #15
	str	r3, [fp, #-52]
	ldr	r3, [fp, #-844]
	lsl	r3, r3, #20
	lsr	r3, r3, #20
	str	r3, [fp, #-56]
	ldr	r3, [fp, #-32]
	cmp	r3, #1
	bne	.L562
	ldr	r4, .L632
	b	.L563
.L562:
	ldr	r4, .L632+4
.L563:
	sub	r3, fp, #692
	mov	r0, r3
	bl	_ZNSaIcEC1Ev
	sub	r2, fp, #692
	sub	r3, fp, #740
	mov	r1, r4
	mov	r0, r3
.LEHB226:
	bl	_ZNSt7__cxx1112basic_stringIcSt11char_traitsIcESaIcEEC1EPKcRKS3_
.LEHE226:
	sub	r3, fp, #692
	mov	r0, r3
	bl	_ZNSaIcED1Ev
	ldr	r3, [fp, #-24]
	cmp	r3, #1
	bne	.L564
	ldr	r4, .L632+4
	b	.L565
.L564:
	ldr	r4, .L632+8
.L565:
	sub	r3, fp, #688
	mov	r0, r3
	bl	_ZNSaIcEC1Ev
	sub	r2, fp, #688
	sub	r3, fp, #764
	mov	r1, r4
	mov	r0, r3
.LEHB227:
	bl	_ZNSt7__cxx1112basic_stringIcSt11char_traitsIcESaIcEEC1EPKcRKS3_
.LEHE227:
	sub	r3, fp, #688
	mov	r0, r3
	bl	_ZNSaIcED1Ev
	ldr	r3, [fp, #-28]
	cmp	r3, #1
	bne	.L566
	ldr	r4, .L632+12
	b	.L567
.L566:
	ldr	r4, .L632+4
.L567:
	sub	r3, fp, #684
	mov	r0, r3
	bl	_ZNSaIcEC1Ev
	sub	r2, fp, #684
	sub	r3, fp, #788
	mov	r1, r4
	mov	r0, r3
.LEHB228:
	bl	_ZNSt7__cxx1112basic_stringIcSt11char_traitsIcESaIcEEC1EPKcRKS3_
.LEHE228:
	sub	r3, fp, #684
	mov	r0, r3
	bl	_ZNSaIcED1Ev
	sub	r2, fp, #764
	sub	r3, fp, #680
	mov	r1, r2
	mov	r0, r3
.LEHB229:
	bl	_ZNSt7__cxx1112basic_stringIcSt11char_traitsIcESaIcEEC1ERKS4_
.LEHE229:
	sub	r0, fp, #812
	sub	r3, fp, #680
	str	r3, [sp]
	ldr	r3, [fp, #-52]
	ldr	r2, [fp, #-56]
	ldr	r1, [fp, #-16]
.LEHB230:
	bl	_Z9get_shiftjjjNSt7__cxx1112basic_stringIcSt11char_traitsIcESaIcEEE
.LEHE230:
	sub	r3, fp, #680
	mov	r0, r3
	bl	_ZNSt7__cxx1112basic_stringIcSt11char_traitsIcESaIcEED1Ev
	sub	r3, fp, #836
	mov	r0, r3
	bl	_ZNSt7__cxx1112basic_stringIcSt11char_traitsIcESaIcEEC1Ev
	ldr	r3, [fp, #-20]
	cmp	r3, #0
	beq	.L568
	ldr	r3, [fp, #-56]
	cmp	r3, #0
	bne	.L569
	sub	r3, fp, #608
	ldr	r1, [fp, #-40]
	mov	r0, r3
.LEHB231:
	bl	_Z12get_registerB5cxx11j
.LEHE231:
	sub	r3, fp, #632
	sub	r2, fp, #608
	ldr	r1, .L632+16
	mov	r0, r3
.LEHB232:
	bl	_ZStplIcSt11char_traitsIcESaIcEENSt7__cxx1112basic_stringIT_T0_T1_EEPKS5_OS8_
.LEHE232:
	sub	r3, fp, #656
	sub	r1, fp, #632
	ldr	r2, .L632+20
	mov	r0, r3
.LEHB233:
	bl	_ZStplIcSt11char_traitsIcESaIcEENSt7__cxx1112basic_stringIT_T0_T1_EEOS8_PKS5_
.LEHE233:
	sub	r2, fp, #656
	sub	r3, fp, #836
	mov	r1, r2
	mov	r0, r3
	bl	_ZNSt7__cxx1112basic_stringIcSt11char_traitsIcESaIcEEaSEOS4_
	sub	r3, fp, #656
	mov	r0, r3
	bl	_ZNSt7__cxx1112basic_stringIcSt11char_traitsIcESaIcEED1Ev
	sub	r3, fp, #632
	mov	r0, r3
	bl	_ZNSt7__cxx1112basic_stringIcSt11char_traitsIcESaIcEED1Ev
	sub	r3, fp, #608
	mov	r0, r3
	bl	_ZNSt7__cxx1112basic_stringIcSt11char_traitsIcESaIcEED1Ev
	b	.L571
.L569:
	sub	r3, fp, #488
	ldr	r1, [fp, #-40]
	mov	r0, r3
.LEHB234:
	bl	_Z12get_registerB5cxx11j
.LEHE234:
	sub	r3, fp, #512
	sub	r2, fp, #488
	ldr	r1, .L632+16
	mov	r0, r3
.LEHB235:
	bl	_ZStplIcSt11char_traitsIcESaIcEENSt7__cxx1112basic_stringIT_T0_T1_EEPKS5_OS8_
.LEHE235:
	sub	r3, fp, #536
	sub	r1, fp, #512
	ldr	r2, .L632+24
	mov	r0, r3
.LEHB236:
	bl	_ZStplIcSt11char_traitsIcESaIcEENSt7__cxx1112basic_stringIT_T0_T1_EEOS8_PKS5_
.LEHE236:
	sub	r3, fp, #560
	sub	r2, fp, #812
	sub	r1, fp, #536
	mov	r0, r3
.LEHB237:
	bl	_ZStplIcSt11char_traitsIcESaIcEENSt7__cxx1112basic_stringIT_T0_T1_EEOS8_RKS8_
.LEHE237:
	sub	r3, fp, #584
	sub	r1, fp, #560
	ldr	r2, .L632+20
	mov	r0, r3
.LEHB238:
	bl	_ZStplIcSt11char_traitsIcESaIcEENSt7__cxx1112basic_stringIT_T0_T1_EEOS8_PKS5_
.LEHE238:
	sub	r2, fp, #584
	sub	r3, fp, #836
	mov	r1, r2
	mov	r0, r3
	bl	_ZNSt7__cxx1112basic_stringIcSt11char_traitsIcESaIcEEaSEOS4_
	sub	r3, fp, #584
	mov	r0, r3
	bl	_ZNSt7__cxx1112basic_stringIcSt11char_traitsIcESaIcEED1Ev
	sub	r3, fp, #560
	mov	r0, r3
	bl	_ZNSt7__cxx1112basic_stringIcSt11char_traitsIcESaIcEED1Ev
	sub	r3, fp, #536
	mov	r0, r3
	bl	_ZNSt7__cxx1112basic_stringIcSt11char_traitsIcESaIcEED1Ev
	sub	r3, fp, #512
	mov	r0, r3
	bl	_ZNSt7__cxx1112basic_stringIcSt11char_traitsIcESaIcEED1Ev
	sub	r3, fp, #488
	mov	r0, r3
	bl	_ZNSt7__cxx1112basic_stringIcSt11char_traitsIcESaIcEED1Ev
	b	.L571
.L568:
	ldr	r3, [fp, #-56]
	cmp	r3, #0
	bne	.L572
	sub	r3, fp, #416
	ldr	r1, [fp, #-40]
	mov	r0, r3
.LEHB239:
	bl	_Z12get_registerB5cxx11j
.LEHE239:
	sub	r3, fp, #440
	sub	r2, fp, #416
	ldr	r1, .L632+16
	mov	r0, r3
.LEHB240:
	bl	_ZStplIcSt11char_traitsIcESaIcEENSt7__cxx1112basic_stringIT_T0_T1_EEPKS5_OS8_
.LEHE240:
	sub	r3, fp, #464
	sub	r1, fp, #440
	ldr	r2, .L632+20
	mov	r0, r3
.LEHB241:
	bl	_ZStplIcSt11char_traitsIcESaIcEENSt7__cxx1112basic_stringIT_T0_T1_EEOS8_PKS5_
.LEHE241:
	sub	r2, fp, #464
	sub	r3, fp, #836
	mov	r1, r2
	mov	r0, r3
	bl	_ZNSt7__cxx1112basic_stringIcSt11char_traitsIcESaIcEEaSEOS4_
	sub	r3, fp, #464
	mov	r0, r3
	bl	_ZNSt7__cxx1112basic_stringIcSt11char_traitsIcESaIcEED1Ev
	sub	r3, fp, #440
	mov	r0, r3
	bl	_ZNSt7__cxx1112basic_stringIcSt11char_traitsIcESaIcEED1Ev
	sub	r3, fp, #416
	mov	r0, r3
	bl	_ZNSt7__cxx1112basic_stringIcSt11char_traitsIcESaIcEED1Ev
	b	.L571
.L572:
	sub	r3, fp, #320
	ldr	r1, [fp, #-40]
	mov	r0, r3
.LEHB242:
	bl	_Z12get_registerB5cxx11j
.LEHE242:
	sub	r3, fp, #344
	sub	r2, fp, #320
	ldr	r1, .L632+16
	mov	r0, r3
.LEHB243:
	bl	_ZStplIcSt11char_traitsIcESaIcEENSt7__cxx1112basic_stringIT_T0_T1_EEPKS5_OS8_
.LEHE243:
	sub	r3, fp, #368
	sub	r1, fp, #344
	ldr	r2, .L632+28
	mov	r0, r3
.LEHB244:
	bl	_ZStplIcSt11char_traitsIcESaIcEENSt7__cxx1112basic_stringIT_T0_T1_EEOS8_PKS5_
.LEHE244:
	sub	r3, fp, #392
	sub	r2, fp, #812
	sub	r1, fp, #368
	mov	r0, r3
.LEHB245:
	bl	_ZStplIcSt11char_traitsIcESaIcEENSt7__cxx1112basic_stringIT_T0_T1_EEOS8_RKS8_
.LEHE245:
	sub	r2, fp, #392
	sub	r3, fp, #836
	mov	r1, r2
	mov	r0, r3
	bl	_ZNSt7__cxx1112basic_stringIcSt11char_traitsIcESaIcEEaSEOS4_
	sub	r3, fp, #392
	mov	r0, r3
	bl	_ZNSt7__cxx1112basic_stringIcSt11char_traitsIcESaIcEED1Ev
	sub	r3, fp, #368
	mov	r0, r3
	bl	_ZNSt7__cxx1112basic_stringIcSt11char_traitsIcESaIcEED1Ev
	sub	r3, fp, #344
	mov	r0, r3
	bl	_ZNSt7__cxx1112basic_stringIcSt11char_traitsIcESaIcEED1Ev
	sub	r3, fp, #320
	mov	r0, r3
	bl	_ZNSt7__cxx1112basic_stringIcSt11char_traitsIcESaIcEED1Ev
.L571:
	ldr	r3, [fp, #-36]
	cmp	r3, #0
	beq	.L573
	sub	r3, fp, #224
	sub	r2, fp, #716
	ldr	r1, .L632+32
	mov	r0, r3
.LEHB246:
	bl	_ZStplIcSt11char_traitsIcESaIcEENSt7__cxx1112basic_stringIT_T0_T1_EEPKS5_RKS8_
.LEHE246:
	sub	r3, fp, #248
	sub	r2, fp, #788
	sub	r1, fp, #224
	mov	r0, r3
.LEHB247:
	bl	_ZStplIcSt11char_traitsIcESaIcEENSt7__cxx1112basic_stringIT_T0_T1_EEOS8_RKS8_
.LEHE247:
	sub	r3, fp, #200
	ldr	r1, [fp, #-44]
	mov	r0, r3
.LEHB248:
	bl	_Z12get_registerB5cxx11j
.LEHE248:
	sub	r3, fp, #272
	sub	r2, fp, #200
	sub	r1, fp, #248
	mov	r0, r3
.LEHB249:
	bl	_ZStplIcSt11char_traitsIcESaIcEENSt7__cxx1112basic_stringIT_T0_T1_EEOS8_S9_
.LEHE249:
	sub	r3, fp, #296
	sub	r2, fp, #836
	sub	r1, fp, #272
	mov	r0, r3
.LEHB250:
	bl	_ZStplIcSt11char_traitsIcESaIcEENSt7__cxx1112basic_stringIT_T0_T1_EEOS8_RKS8_
.LEHE250:
	sub	r3, fp, #296
	mov	r1, r3
	ldr	r0, [fp, #-840]
	bl	_ZNSt7__cxx1112basic_stringIcSt11char_traitsIcESaIcEEaSEOS4_
	sub	r3, fp, #296
	mov	r0, r3
	bl	_ZNSt7__cxx1112basic_stringIcSt11char_traitsIcESaIcEED1Ev
	sub	r3, fp, #272
	mov	r0, r3
	bl	_ZNSt7__cxx1112basic_stringIcSt11char_traitsIcESaIcEED1Ev
	sub	r3, fp, #200
	mov	r0, r3
	bl	_ZNSt7__cxx1112basic_stringIcSt11char_traitsIcESaIcEED1Ev
	sub	r3, fp, #248
	mov	r0, r3
	bl	_ZNSt7__cxx1112basic_stringIcSt11char_traitsIcESaIcEED1Ev
	sub	r3, fp, #224
	mov	r0, r3
	bl	_ZNSt7__cxx1112basic_stringIcSt11char_traitsIcESaIcEED1Ev
	b	.L631
.L573:
	sub	r3, fp, #104
	sub	r2, fp, #716
	ldr	r1, .L632+36
	mov	r0, r3
.LEHB251:
	bl	_ZStplIcSt11char_traitsIcESaIcEENSt7__cxx1112basic_stringIT_T0_T1_EEPKS5_RKS8_
.LEHE251:
	sub	r3, fp, #128
	sub	r2, fp, #788
	sub	r1, fp, #104
	mov	r0, r3
.LEHB252:
	bl	_ZStplIcSt11char_traitsIcESaIcEENSt7__cxx1112basic_stringIT_T0_T1_EEOS8_RKS8_
.LEHE252:
	sub	r3, fp, #80
	ldr	r1, [fp, #-44]
	mov	r0, r3
.LEHB253:
	bl	_Z12get_registerB5cxx11j
.LEHE253:
	sub	r3, fp, #152
	sub	r2, fp, #80
	sub	r1, fp, #128
	mov	r0, r3
.LEHB254:
	bl	_ZStplIcSt11char_traitsIcESaIcEENSt7__cxx1112basic_stringIT_T0_T1_EEOS8_S9_
.LEHE254:
	sub	r3, fp, #176
	sub	r2, fp, #836
	sub	r1, fp, #152
	mov	r0, r3
.LEHB255:
	bl	_ZStplIcSt11char_traitsIcESaIcEENSt7__cxx1112basic_stringIT_T0_T1_EEOS8_RKS8_
.LEHE255:
	sub	r3, fp, #176
	mov	r1, r3
	ldr	r0, [fp, #-840]
	bl	_ZNSt7__cxx1112basic_stringIcSt11char_traitsIcESaIcEEaSEOS4_
	sub	r3, fp, #176
	mov	r0, r3
	bl	_ZNSt7__cxx1112basic_stringIcSt11char_traitsIcESaIcEED1Ev
	sub	r3, fp, #152
	mov	r0, r3
	bl	_ZNSt7__cxx1112basic_stringIcSt11char_traitsIcESaIcEED1Ev
	sub	r3, fp, #80
	mov	r0, r3
	bl	_ZNSt7__cxx1112basic_stringIcSt11char_traitsIcESaIcEED1Ev
	sub	r3, fp, #128
	mov	r0, r3
	bl	_ZNSt7__cxx1112basic_stringIcSt11char_traitsIcESaIcEED1Ev
	sub	r3, fp, #104
	mov	r0, r3
	bl	_ZNSt7__cxx1112basic_stringIcSt11char_traitsIcESaIcEED1Ev
.L631:
	nop
	sub	r3, fp, #836
	mov	r0, r3
	bl	_ZNSt7__cxx1112basic_stringIcSt11char_traitsIcESaIcEED1Ev
	sub	r3, fp, #812
	mov	r0, r3
	bl	_ZNSt7__cxx1112basic_stringIcSt11char_traitsIcESaIcEED1Ev
	sub	r3, fp, #788
	mov	r0, r3
	bl	_ZNSt7__cxx1112basic_stringIcSt11char_traitsIcESaIcEED1Ev
	sub	r3, fp, #764
	mov	r0, r3
	bl	_ZNSt7__cxx1112basic_stringIcSt11char_traitsIcESaIcEED1Ev
	sub	r3, fp, #740
	mov	r0, r3
	bl	_ZNSt7__cxx1112basic_stringIcSt11char_traitsIcESaIcEED1Ev
	sub	r3, fp, #716
	mov	r0, r3
	bl	_ZNSt7__cxx1112basic_stringIcSt11char_traitsIcESaIcEED1Ev
	b	.L630
.L604:
	sub	r3, fp, #692
	mov	r0, r3
	bl	_ZNSaIcED1Ev
	b	.L577
.L605:
	sub	r3, fp, #688
	mov	r0, r3
	bl	_ZNSaIcED1Ev
	b	.L579
.L606:
	sub	r3, fp, #684
	mov	r0, r3
	bl	_ZNSaIcED1Ev
	b	.L581
.L608:
	sub	r3, fp, #680
	mov	r0, r3
	bl	_ZNSt7__cxx1112basic_stringIcSt11char_traitsIcESaIcEED1Ev
	b	.L583
.L611:
	sub	r3, fp, #632
	mov	r0, r3
	bl	_ZNSt7__cxx1112basic_stringIcSt11char_traitsIcESaIcEED1Ev
	b	.L585
.L610:
.L585:
	sub	r3, fp, #608
	mov	r0, r3
	bl	_ZNSt7__cxx1112basic_stringIcSt11char_traitsIcESaIcEED1Ev
	b	.L586
.L615:
	sub	r3, fp, #560
	mov	r0, r3
	bl	_ZNSt7__cxx1112basic_stringIcSt11char_traitsIcESaIcEED1Ev
	b	.L588
.L614:
.L588:
	sub	r3, fp, #536
	mov	r0, r3
	bl	_ZNSt7__cxx1112basic_stringIcSt11char_traitsIcESaIcEED1Ev
	b	.L589
.L613:
.L589:
	sub	r3, fp, #512
	mov	r0, r3
	bl	_ZNSt7__cxx1112basic_stringIcSt11char_traitsIcESaIcEED1Ev
	b	.L590
.L612:
.L590:
	sub	r3, fp, #488
	mov	r0, r3
	bl	_ZNSt7__cxx1112basic_stringIcSt11char_traitsIcESaIcEED1Ev
	b	.L586
.L617:
	sub	r3, fp, #440
	mov	r0, r3
	bl	_ZNSt7__cxx1112basic_stringIcSt11char_traitsIcESaIcEED1Ev
	b	.L592
.L616:
.L592:
	sub	r3, fp, #416
	mov	r0, r3
	bl	_ZNSt7__cxx1112basic_stringIcSt11char_traitsIcESaIcEED1Ev
	b	.L586
.L620:
	sub	r3, fp, #368
	mov	r0, r3
	bl	_ZNSt7__cxx1112basic_stringIcSt11char_traitsIcESaIcEED1Ev
	b	.L594
.L619:
.L594:
	sub	r3, fp, #344
	mov	r0, r3
	bl	_ZNSt7__cxx1112basic_stringIcSt11char_traitsIcESaIcEED1Ev
	b	.L595
.L618:
.L595:
	sub	r3, fp, #320
	mov	r0, r3
	bl	_ZNSt7__cxx1112basic_stringIcSt11char_traitsIcESaIcEED1Ev
	b	.L586
.L624:
	sub	r3, fp, #272
	mov	r0, r3
	bl	_ZNSt7__cxx1112basic_stringIcSt11char_traitsIcESaIcEED1Ev
	b	.L597
.L623:
.L597:
	sub	r3, fp, #200
	mov	r0, r3
	bl	_ZNSt7__cxx1112basic_stringIcSt11char_traitsIcESaIcEED1Ev
	b	.L598
.L622:
.L598:
	sub	r3, fp, #248
	mov	r0, r3
	bl	_ZNSt7__cxx1112basic_stringIcSt11char_traitsIcESaIcEED1Ev
	b	.L599
.L621:
.L599:
	sub	r3, fp, #224
	mov	r0, r3
	bl	_ZNSt7__cxx1112basic_stringIcSt11char_traitsIcESaIcEED1Ev
	b	.L586
.L628:
	sub	r3, fp, #152
	mov	r0, r3
	bl	_ZNSt7__cxx1112basic_stringIcSt11char_traitsIcESaIcEED1Ev
	b	.L601
.L627:
.L601:
	sub	r3, fp, #80
	mov	r0, r3
	bl	_ZNSt7__cxx1112basic_stringIcSt11char_traitsIcESaIcEED1Ev
	b	.L602
.L626:
.L602:
	sub	r3, fp, #128
	mov	r0, r3
	bl	_ZNSt7__cxx1112basic_stringIcSt11char_traitsIcESaIcEED1Ev
	b	.L603
.L625:
.L603:
	sub	r3, fp, #104
	mov	r0, r3
	bl	_ZNSt7__cxx1112basic_stringIcSt11char_traitsIcESaIcEED1Ev
	b	.L586
.L609:
.L586:
	sub	r3, fp, #836
	mov	r0, r3
	bl	_ZNSt7__cxx1112basic_stringIcSt11char_traitsIcESaIcEED1Ev
	sub	r3, fp, #812
	mov	r0, r3
	bl	_ZNSt7__cxx1112basic_stringIcSt11char_traitsIcESaIcEED1Ev
	b	.L583
.L607:
.L583:
	sub	r3, fp, #788
	mov	r0, r3
	bl	_ZNSt7__cxx1112basic_stringIcSt11char_traitsIcESaIcEED1Ev
.L581:
	sub	r3, fp, #764
	mov	r0, r3
	bl	_ZNSt7__cxx1112basic_stringIcSt11char_traitsIcESaIcEED1Ev
.L579:
	sub	r3, fp, #740
	mov	r0, r3
	bl	_ZNSt7__cxx1112basic_stringIcSt11char_traitsIcESaIcEED1Ev
.L577:
	ldr	r0, [fp, #-840]
	bl	_ZNSt7__cxx1112basic_stringIcSt11char_traitsIcESaIcEED1Ev
	sub	r3, fp, #716
	mov	r0, r3
	bl	_ZNSt7__cxx1112basic_stringIcSt11char_traitsIcESaIcEED1Ev
.LEHB256:
	bl	__cxa_end_cleanup
.LEHE256:
.L630:
	ldr	r0, [fp, #-840]
	sub	sp, fp, #8
	@ sp needed
	pop	{r4, fp, pc}
.L633:
	.align	2
.L632:
	.word	.LC33
	.word	.LC7
	.word	.LC30
	.word	.LC38
	.word	.LC34
	.word	.LC28
	.word	.LC8
	.word	.LC35
	.word	.LC31
	.word	.LC32
	.personality	__gxx_personality_v0
	.handlerdata
.LLSDA2705:
	.byte	0xff
	.byte	0xff
	.byte	0x1
	.uleb128 .LLSDACSE2705-.LLSDACSB2705
.LLSDACSB2705:
	.uleb128 .LEHB225-.LFB2705
	.uleb128 .LEHE225-.LEHB225
	.uleb128 0
	.uleb128 0
	.uleb128 .LEHB226-.LFB2705
	.uleb128 .LEHE226-.LEHB226
	.uleb128 .L604-.LFB2705
	.uleb128 0
	.uleb128 .LEHB227-.LFB2705
	.uleb128 .LEHE227-.LEHB227
	.uleb128 .L605-.LFB2705
	.uleb128 0
	.uleb128 .LEHB228-.LFB2705
	.uleb128 .LEHE228-.LEHB228
	.uleb128 .L606-.LFB2705
	.uleb128 0
	.uleb128 .LEHB229-.LFB2705
	.uleb128 .LEHE229-.LEHB229
	.uleb128 .L607-.LFB2705
	.uleb128 0
	.uleb128 .LEHB230-.LFB2705
	.uleb128 .LEHE230-.LEHB230
	.uleb128 .L608-.LFB2705
	.uleb128 0
	.uleb128 .LEHB231-.LFB2705
	.uleb128 .LEHE231-.LEHB231
	.uleb128 .L609-.LFB2705
	.uleb128 0
	.uleb128 .LEHB232-.LFB2705
	.uleb128 .LEHE232-.LEHB232
	.uleb128 .L610-.LFB2705
	.uleb128 0
	.uleb128 .LEHB233-.LFB2705
	.uleb128 .LEHE233-.LEHB233
	.uleb128 .L611-.LFB2705
	.uleb128 0
	.uleb128 .LEHB234-.LFB2705
	.uleb128 .LEHE234-.LEHB234
	.uleb128 .L609-.LFB2705
	.uleb128 0
	.uleb128 .LEHB235-.LFB2705
	.uleb128 .LEHE235-.LEHB235
	.uleb128 .L612-.LFB2705
	.uleb128 0
	.uleb128 .LEHB236-.LFB2705
	.uleb128 .LEHE236-.LEHB236
	.uleb128 .L613-.LFB2705
	.uleb128 0
	.uleb128 .LEHB237-.LFB2705
	.uleb128 .LEHE237-.LEHB237
	.uleb128 .L614-.LFB2705
	.uleb128 0
	.uleb128 .LEHB238-.LFB2705
	.uleb128 .LEHE238-.LEHB238
	.uleb128 .L615-.LFB2705
	.uleb128 0
	.uleb128 .LEHB239-.LFB2705
	.uleb128 .LEHE239-.LEHB239
	.uleb128 .L609-.LFB2705
	.uleb128 0
	.uleb128 .LEHB240-.LFB2705
	.uleb128 .LEHE240-.LEHB240
	.uleb128 .L616-.LFB2705
	.uleb128 0
	.uleb128 .LEHB241-.LFB2705
	.uleb128 .LEHE241-.LEHB241
	.uleb128 .L617-.LFB2705
	.uleb128 0
	.uleb128 .LEHB242-.LFB2705
	.uleb128 .LEHE242-.LEHB242
	.uleb128 .L609-.LFB2705
	.uleb128 0
	.uleb128 .LEHB243-.LFB2705
	.uleb128 .LEHE243-.LEHB243
	.uleb128 .L618-.LFB2705
	.uleb128 0
	.uleb128 .LEHB244-.LFB2705
	.uleb128 .LEHE244-.LEHB244
	.uleb128 .L619-.LFB2705
	.uleb128 0
	.uleb128 .LEHB245-.LFB2705
	.uleb128 .LEHE245-.LEHB245
	.uleb128 .L620-.LFB2705
	.uleb128 0
	.uleb128 .LEHB246-.LFB2705
	.uleb128 .LEHE246-.LEHB246
	.uleb128 .L609-.LFB2705
	.uleb128 0
	.uleb128 .LEHB247-.LFB2705
	.uleb128 .LEHE247-.LEHB247
	.uleb128 .L621-.LFB2705
	.uleb128 0
	.uleb128 .LEHB248-.LFB2705
	.uleb128 .LEHE248-.LEHB248
	.uleb128 .L622-.LFB2705
	.uleb128 0
	.uleb128 .LEHB249-.LFB2705
	.uleb128 .LEHE249-.LEHB249
	.uleb128 .L623-.LFB2705
	.uleb128 0
	.uleb128 .LEHB250-.LFB2705
	.uleb128 .LEHE250-.LEHB250
	.uleb128 .L624-.LFB2705
	.uleb128 0
	.uleb128 .LEHB251-.LFB2705
	.uleb128 .LEHE251-.LEHB251
	.uleb128 .L609-.LFB2705
	.uleb128 0
	.uleb128 .LEHB252-.LFB2705
	.uleb128 .LEHE252-.LEHB252
	.uleb128 .L625-.LFB2705
	.uleb128 0
	.uleb128 .LEHB253-.LFB2705
	.uleb128 .LEHE253-.LEHB253
	.uleb128 .L626-.LFB2705
	.uleb128 0
	.uleb128 .LEHB254-.LFB2705
	.uleb128 .LEHE254-.LEHB254
	.uleb128 .L627-.LFB2705
	.uleb128 0
	.uleb128 .LEHB255-.LFB2705
	.uleb128 .LEHE255-.LEHB255
	.uleb128 .L628-.LFB2705
	.uleb128 0
	.uleb128 .LEHB256-.LFB2705
	.uleb128 .LEHE256-.LEHB256
	.uleb128 0
	.uleb128 0
.LLSDACSE2705:
	.text
	.fnend
	.size	_Z27handle_single_data_transferB5cxx11j, .-_Z27handle_single_data_transferB5cxx11j
	.section	.rodata
	.align	2
.LC39:
	.ascii	"^\000"
	.align	2
.LC40:
	.ascii	"SP\000"
	.align	2
.LC41:
	.ascii	"LDM\000"
	.align	2
.LC42:
	.ascii	"ED \000"
	.align	2
.LC43:
	.ascii	",{\000"
	.align	2
.LC44:
	.ascii	"}\000"
	.align	2
.LC45:
	.ascii	"IB \000"
	.align	2
.LC46:
	.ascii	"EA \000"
	.align	2
.LC47:
	.ascii	"DB \000"
	.align	2
.LC48:
	.ascii	"FD \000"
	.align	2
.LC49:
	.ascii	"IA \000"
	.align	2
.LC50:
	.ascii	"FA \000"
	.align	2
.LC51:
	.ascii	"DA \000"
	.align	2
.LC52:
	.ascii	"STM\000"
	.text
	.align	2
	.global	_Z26handle_block_data_transferB5cxx11j
	.syntax unified
	.arm
	.fpu vfp
	.type	_Z26handle_block_data_transferB5cxx11j, %function
_Z26handle_block_data_transferB5cxx11j:
	.fnstart
.LFB2706:
	@ args = 0, pretend = 0, frame = 3920
	@ frame_needed = 1, uses_anonymous_args = 0
	push	{r4, fp, lr}
	.save {r4, fp, lr}
	.setfp fp, sp, #8
	add	fp, sp, #8
	.pad #3920
	sub	sp, sp, #3920
	.pad #4
	sub	sp, sp, #4
	str	r0, [fp, #-3928]
	str	r1, [fp, #-3932]
	sub	r3, fp, #3824
	sub	r3, r3, #12
	sub	r3, r3, #12
	ldr	r1, [fp, #-3932]
	mov	r0, r3
.LEHB257:
	bl	_Z18get_condition_codeB5cxx11j
.LEHE257:
	ldr	r0, [fp, #-3928]
	bl	_ZNSt7__cxx1112basic_stringIcSt11char_traitsIcESaIcEEC1Ev
	ldr	r3, [fp, #-3932]
	lsr	r3, r3, #24
	and	r3, r3, #1
	str	r3, [fp, #-24]
	ldr	r3, [fp, #-3932]
	lsr	r3, r3, #23
	and	r3, r3, #1
	str	r3, [fp, #-28]
	ldr	r3, [fp, #-3932]
	lsr	r3, r3, #22
	and	r3, r3, #1
	str	r3, [fp, #-32]
	ldr	r3, [fp, #-3932]
	lsr	r3, r3, #21
	and	r3, r3, #1
	str	r3, [fp, #-36]
	ldr	r3, [fp, #-3932]
	lsr	r3, r3, #20
	and	r3, r3, #1
	str	r3, [fp, #-40]
	ldr	r3, [fp, #-3932]
	lsr	r3, r3, #16
	and	r3, r3, #15
	str	r3, [fp, #-44]
	ldr	r3, [fp, #-3932]
	uxth	r3, r3
	str	r3, [fp, #-48]
	ldr	r3, [fp, #-36]
	cmp	r3, #1
	bne	.L635
	ldr	r4, .L941
	b	.L636
.L635:
	ldr	r4, .L941+4
.L636:
	sub	r3, fp, #3808
	sub	r3, r3, #12
	sub	r3, r3, #4
	mov	r0, r3
	bl	_ZNSaIcEC1Ev
	sub	r2, fp, #3808
	sub	r2, r2, #12
	sub	r2, r2, #4
	sub	r3, fp, #3856
	sub	r3, r3, #12
	sub	r3, r3, #4
	mov	r1, r4
	mov	r0, r3
.LEHB258:
	bl	_ZNSt7__cxx1112basic_stringIcSt11char_traitsIcESaIcEEC1EPKcRKS3_
.LEHE258:
	sub	r3, fp, #3808
	sub	r3, r3, #12
	sub	r3, r3, #4
	mov	r0, r3
	bl	_ZNSaIcED1Ev
	ldr	r3, [fp, #-32]
	cmp	r3, #1
	bne	.L637
	ldr	r4, .L941+8
	b	.L638
.L637:
	ldr	r4, .L941+4
.L638:
	sub	r3, fp, #3808
	sub	r3, r3, #12
	mov	r0, r3
	bl	_ZNSaIcEC1Ev
	sub	r2, fp, #3808
	sub	r2, r2, #12
	sub	r3, fp, #3872
	sub	r3, r3, #12
	sub	r3, r3, #12
	mov	r1, r4
	mov	r0, r3
.LEHB259:
	bl	_ZNSt7__cxx1112basic_stringIcSt11char_traitsIcESaIcEEC1EPKcRKS3_
.LEHE259:
	sub	r3, fp, #3808
	sub	r3, r3, #12
	mov	r0, r3
	bl	_ZNSaIcED1Ev
	sub	r3, fp, #3904
	sub	r3, r3, #12
	sub	r3, r3, #4
	mov	r0, r3
	bl	_ZNSt7__cxx1112basic_stringIcSt11char_traitsIcESaIcEEC1Ev
	mov	r3, #0
	str	r3, [fp, #-16]
	mov	r3, #0
	str	r3, [fp, #-20]
.L643:
	ldr	r3, [fp, #-20]
	cmp	r3, #15
	bgt	.L639
	ldr	r2, [fp, #-48]
	ldr	r3, [fp, #-20]
	lsr	r3, r2, r3
	and	r3, r3, #1
	cmp	r3, #0
	beq	.L640
	ldr	r3, [fp, #-16]
	cmp	r3, #0
	bne	.L641
	ldr	r2, [fp, #-20]
	sub	r3, fp, #3776
	sub	r3, r3, #12
	sub	r3, r3, #4
	mov	r1, r2
	mov	r0, r3
.LEHB260:
	bl	_Z12get_registerB5cxx11j
.LEHE260:
	sub	r3, fp, #3792
	sub	r3, r3, #12
	sub	r3, r3, #12
	sub	r2, fp, #3776
	sub	r2, r2, #12
	sub	r2, r2, #4
	sub	r1, fp, #3904
	sub	r1, r1, #12
	sub	r1, r1, #4
	mov	r0, r3
.LEHB261:
	bl	_ZStplIcSt11char_traitsIcESaIcEENSt7__cxx1112basic_stringIT_T0_T1_EERKS8_OS8_
.LEHE261:
	sub	r2, fp, #3792
	sub	r2, r2, #12
	sub	r2, r2, #12
	sub	r3, fp, #3904
	sub	r3, r3, #12
	sub	r3, r3, #4
	mov	r1, r2
	mov	r0, r3
	bl	_ZNSt7__cxx1112basic_stringIcSt11char_traitsIcESaIcEEaSEOS4_
	sub	r3, fp, #3792
	sub	r3, r3, #12
	sub	r3, r3, #12
	mov	r0, r3
	bl	_ZNSt7__cxx1112basic_stringIcSt11char_traitsIcESaIcEED1Ev
	sub	r3, fp, #3776
	sub	r3, r3, #12
	sub	r3, r3, #4
	mov	r0, r3
	bl	_ZNSt7__cxx1112basic_stringIcSt11char_traitsIcESaIcEED1Ev
	b	.L642
.L641:
	sub	r3, fp, #3728
	sub	r3, r3, #12
	sub	r3, r3, #4
	sub	r1, fp, #3904
	sub	r1, r1, #12
	sub	r1, r1, #4
	ldr	r2, .L941+12
	mov	r0, r3
.LEHB262:
	bl	_ZStplIcSt11char_traitsIcESaIcEENSt7__cxx1112basic_stringIT_T0_T1_EERKS8_PKS5_
.LEHE262:
	ldr	r2, [fp, #-20]
	sub	r3, fp, #3696
	sub	r3, r3, #12
	sub	r3, r3, #12
	mov	r1, r2
	mov	r0, r3
.LEHB263:
	bl	_Z12get_registerB5cxx11j
.LEHE263:
	sub	r3, fp, #3744
	sub	r3, r3, #12
	sub	r3, r3, #12
	sub	r2, fp, #3696
	sub	r2, r2, #12
	sub	r2, r2, #12
	sub	r1, fp, #3728
	sub	r1, r1, #12
	sub	r1, r1, #4
	mov	r0, r3
.LEHB264:
	bl	_ZStplIcSt11char_traitsIcESaIcEENSt7__cxx1112basic_stringIT_T0_T1_EEOS8_S9_
.LEHE264:
	sub	r2, fp, #3744
	sub	r2, r2, #12
	sub	r2, r2, #12
	sub	r3, fp, #3904
	sub	r3, r3, #12
	sub	r3, r3, #4
	mov	r1, r2
	mov	r0, r3
	bl	_ZNSt7__cxx1112basic_stringIcSt11char_traitsIcESaIcEEaSEOS4_
	sub	r3, fp, #3744
	sub	r3, r3, #12
	sub	r3, r3, #12
	mov	r0, r3
	bl	_ZNSt7__cxx1112basic_stringIcSt11char_traitsIcESaIcEED1Ev
	sub	r3, fp, #3696
	sub	r3, r3, #12
	sub	r3, r3, #12
	mov	r0, r3
	bl	_ZNSt7__cxx1112basic_stringIcSt11char_traitsIcESaIcEED1Ev
	sub	r3, fp, #3728
	sub	r3, r3, #12
	sub	r3, r3, #4
	mov	r0, r3
	bl	_ZNSt7__cxx1112basic_stringIcSt11char_traitsIcESaIcEED1Ev
.L642:
	ldr	r3, [fp, #-16]
	add	r3, r3, #1
	str	r3, [fp, #-16]
.L640:
	ldr	r3, [fp, #-20]
	add	r3, r3, #1
	str	r3, [fp, #-20]
	b	.L643
.L639:
	ldr	r3, [fp, #-40]
	cmp	r3, #1
	bne	.L644
	ldr	r3, [fp, #-24]
	cmp	r3, #1
	bne	.L645
	ldr	r3, [fp, #-28]
	cmp	r3, #1
	bne	.L646
	sub	r3, fp, #3680
	sub	r3, r3, #12
	sub	r3, r3, #4
	ldr	r1, [fp, #-44]
	mov	r0, r3
.LEHB265:
	bl	_Z12get_registerB5cxx11j
	sub	r3, fp, #3680
	sub	r3, r3, #12
	sub	r3, r3, #4
	ldr	r1, .L941+44
	mov	r0, r3
	bl	_ZSteqIcSt11char_traitsIcESaIcEEbRKNSt7__cxx1112basic_stringIT_T0_T1_EEPKS5_
	mov	r3, r0
	mov	r4, r3
	sub	r3, fp, #3680
	sub	r3, r3, #12
	sub	r3, r3, #4
	mov	r0, r3
	bl	_ZNSt7__cxx1112basic_stringIcSt11char_traitsIcESaIcEED1Ev
	cmp	r4, #0
	beq	.L647
	sub	r3, fp, #3488
	sub	r3, r3, #12
	sub	r3, r3, #4
	sub	r2, fp, #3824
	sub	r2, r2, #12
	sub	r2, r2, #12
	ldr	r1, .L941+28
	mov	r0, r3
	bl	_ZStplIcSt11char_traitsIcESaIcEENSt7__cxx1112basic_stringIT_T0_T1_EEPKS5_RKS8_
.LEHE265:
	sub	r3, fp, #3504
	sub	r3, r3, #12
	sub	r3, r3, #12
	sub	r1, fp, #3488
	sub	r1, r1, #12
	sub	r1, r1, #4
	ldr	r2, .L941+16
	mov	r0, r3
.LEHB266:
	bl	_ZStplIcSt11char_traitsIcESaIcEENSt7__cxx1112basic_stringIT_T0_T1_EEOS8_PKS5_
.LEHE266:
	sub	r3, fp, #3456
	sub	r3, r3, #12
	sub	r3, r3, #12
	ldr	r1, [fp, #-44]
	mov	r0, r3
.LEHB267:
	bl	_Z12get_registerB5cxx11j
.LEHE267:
	sub	r3, fp, #3536
	sub	r3, r3, #12
	sub	r3, r3, #4
	sub	r2, fp, #3456
	sub	r2, r2, #12
	sub	r2, r2, #12
	sub	r1, fp, #3504
	sub	r1, r1, #12
	sub	r1, r1, #12
	mov	r0, r3
.LEHB268:
	bl	_ZStplIcSt11char_traitsIcESaIcEENSt7__cxx1112basic_stringIT_T0_T1_EEOS8_S9_
.LEHE268:
	sub	r3, fp, #3552
	sub	r3, r3, #12
	sub	r3, r3, #12
	sub	r2, fp, #3856
	sub	r2, r2, #12
	sub	r2, r2, #4
	sub	r1, fp, #3536
	sub	r1, r1, #12
	sub	r1, r1, #4
	mov	r0, r3
.LEHB269:
	bl	_ZStplIcSt11char_traitsIcESaIcEENSt7__cxx1112basic_stringIT_T0_T1_EEOS8_RKS8_
.LEHE269:
	sub	r3, fp, #3584
	sub	r3, r3, #12
	sub	r3, r3, #4
	sub	r1, fp, #3552
	sub	r1, r1, #12
	sub	r1, r1, #12
	ldr	r2, .L941+60
	mov	r0, r3
.LEHB270:
	bl	_ZStplIcSt11char_traitsIcESaIcEENSt7__cxx1112basic_stringIT_T0_T1_EEOS8_PKS5_
.LEHE270:
	sub	r3, fp, #3600
	sub	r3, r3, #12
	sub	r3, r3, #12
	sub	r2, fp, #3904
	sub	r2, r2, #12
	sub	r2, r2, #4
	sub	r1, fp, #3584
	sub	r1, r1, #12
	sub	r1, r1, #4
	mov	r0, r3
.LEHB271:
	bl	_ZStplIcSt11char_traitsIcESaIcEENSt7__cxx1112basic_stringIT_T0_T1_EEOS8_RKS8_
.LEHE271:
	sub	r3, fp, #3632
	sub	r3, r3, #12
	sub	r3, r3, #4
	sub	r1, fp, #3600
	sub	r1, r1, #12
	sub	r1, r1, #12
	ldr	r2, .L941+64
	mov	r0, r3
.LEHB272:
	bl	_ZStplIcSt11char_traitsIcESaIcEENSt7__cxx1112basic_stringIT_T0_T1_EEOS8_PKS5_
.LEHE272:
	sub	r3, fp, #3648
	sub	r3, r3, #12
	sub	r3, r3, #12
	sub	r2, fp, #3872
	sub	r2, r2, #12
	sub	r2, r2, #12
	sub	r1, fp, #3632
	sub	r1, r1, #12
	sub	r1, r1, #4
	mov	r0, r3
.LEHB273:
	bl	_ZStplIcSt11char_traitsIcESaIcEENSt7__cxx1112basic_stringIT_T0_T1_EEOS8_RKS8_
.LEHE273:
	sub	r3, fp, #3648
	sub	r3, r3, #12
	sub	r3, r3, #12
	mov	r1, r3
	ldr	r0, [fp, #-3928]
	bl	_ZNSt7__cxx1112basic_stringIcSt11char_traitsIcESaIcEEaSEOS4_
	sub	r3, fp, #3648
	sub	r3, r3, #12
	sub	r3, r3, #12
	mov	r0, r3
	bl	_ZNSt7__cxx1112basic_stringIcSt11char_traitsIcESaIcEED1Ev
	sub	r3, fp, #3632
	sub	r3, r3, #12
	sub	r3, r3, #4
	mov	r0, r3
	bl	_ZNSt7__cxx1112basic_stringIcSt11char_traitsIcESaIcEED1Ev
	sub	r3, fp, #3600
	sub	r3, r3, #12
	sub	r3, r3, #12
	mov	r0, r3
	bl	_ZNSt7__cxx1112basic_stringIcSt11char_traitsIcESaIcEED1Ev
	sub	r3, fp, #3584
	sub	r3, r3, #12
	sub	r3, r3, #4
	mov	r0, r3
	bl	_ZNSt7__cxx1112basic_stringIcSt11char_traitsIcESaIcEED1Ev
	sub	r3, fp, #3552
	sub	r3, r3, #12
	sub	r3, r3, #12
	mov	r0, r3
	bl	_ZNSt7__cxx1112basic_stringIcSt11char_traitsIcESaIcEED1Ev
	sub	r3, fp, #3536
	sub	r3, r3, #12
	sub	r3, r3, #4
	mov	r0, r3
	bl	_ZNSt7__cxx1112basic_stringIcSt11char_traitsIcESaIcEED1Ev
	sub	r3, fp, #3456
	sub	r3, r3, #12
	sub	r3, r3, #12
	mov	r0, r3
	bl	_ZNSt7__cxx1112basic_stringIcSt11char_traitsIcESaIcEED1Ev
	sub	r3, fp, #3504
	sub	r3, r3, #12
	sub	r3, r3, #12
	mov	r0, r3
	bl	_ZNSt7__cxx1112basic_stringIcSt11char_traitsIcESaIcEED1Ev
	sub	r3, fp, #3488
	sub	r3, r3, #12
	sub	r3, r3, #4
	mov	r0, r3
	bl	_ZNSt7__cxx1112basic_stringIcSt11char_traitsIcESaIcEED1Ev
	b	.L940
.L647:
	sub	r3, fp, #3264
	sub	r3, r3, #12
	sub	r3, r3, #12
	sub	r2, fp, #3824
	sub	r2, r2, #12
	sub	r2, r2, #12
	ldr	r1, .L941+28
	mov	r0, r3
.LEHB274:
	bl	_ZStplIcSt11char_traitsIcESaIcEENSt7__cxx1112basic_stringIT_T0_T1_EEPKS5_RKS8_
.LEHE274:
	sub	r3, fp, #3296
	sub	r3, r3, #12
	sub	r3, r3, #4
	sub	r1, fp, #3264
	sub	r1, r1, #12
	sub	r1, r1, #12
	ldr	r2, .L941+40
	mov	r0, r3
.LEHB275:
	bl	_ZStplIcSt11char_traitsIcESaIcEENSt7__cxx1112basic_stringIT_T0_T1_EEOS8_PKS5_
.LEHE275:
	sub	r3, fp, #3248
	sub	r3, r3, #12
	sub	r3, r3, #4
	ldr	r1, [fp, #-44]
	mov	r0, r3
.LEHB276:
	bl	_Z12get_registerB5cxx11j
.LEHE276:
	sub	r3, fp, #3312
	sub	r3, r3, #12
	sub	r3, r3, #12
	sub	r2, fp, #3248
	sub	r2, r2, #12
	sub	r2, r2, #4
	sub	r1, fp, #3296
	sub	r1, r1, #12
	sub	r1, r1, #4
	mov	r0, r3
.LEHB277:
	bl	_ZStplIcSt11char_traitsIcESaIcEENSt7__cxx1112basic_stringIT_T0_T1_EEOS8_S9_
.LEHE277:
	sub	r3, fp, #3344
	sub	r3, r3, #12
	sub	r3, r3, #4
	sub	r2, fp, #3856
	sub	r2, r2, #12
	sub	r2, r2, #4
	sub	r1, fp, #3312
	sub	r1, r1, #12
	sub	r1, r1, #12
	mov	r0, r3
.LEHB278:
	bl	_ZStplIcSt11char_traitsIcESaIcEENSt7__cxx1112basic_stringIT_T0_T1_EEOS8_RKS8_
.LEHE278:
	sub	r3, fp, #3360
	sub	r3, r3, #12
	sub	r3, r3, #12
	sub	r1, fp, #3344
	sub	r1, r1, #12
	sub	r1, r1, #4
	ldr	r2, .L941+60
	mov	r0, r3
.LEHB279:
	bl	_ZStplIcSt11char_traitsIcESaIcEENSt7__cxx1112basic_stringIT_T0_T1_EEOS8_PKS5_
.LEHE279:
	sub	r3, fp, #3392
	sub	r3, r3, #12
	sub	r3, r3, #4
	sub	r2, fp, #3904
	sub	r2, r2, #12
	sub	r2, r2, #4
	sub	r1, fp, #3360
	sub	r1, r1, #12
	sub	r1, r1, #12
	mov	r0, r3
.LEHB280:
	bl	_ZStplIcSt11char_traitsIcESaIcEENSt7__cxx1112basic_stringIT_T0_T1_EEOS8_RKS8_
.LEHE280:
	sub	r3, fp, #3408
	sub	r3, r3, #12
	sub	r3, r3, #12
	sub	r1, fp, #3392
	sub	r1, r1, #12
	sub	r1, r1, #4
	ldr	r2, .L941+64
	mov	r0, r3
.LEHB281:
	bl	_ZStplIcSt11char_traitsIcESaIcEENSt7__cxx1112basic_stringIT_T0_T1_EEOS8_PKS5_
.LEHE281:
	sub	r3, fp, #3440
	sub	r3, r3, #12
	sub	r3, r3, #4
	sub	r2, fp, #3872
	sub	r2, r2, #12
	sub	r2, r2, #12
	sub	r1, fp, #3408
	sub	r1, r1, #12
	sub	r1, r1, #12
	mov	r0, r3
.LEHB282:
	bl	_ZStplIcSt11char_traitsIcESaIcEENSt7__cxx1112basic_stringIT_T0_T1_EEOS8_RKS8_
.LEHE282:
	sub	r3, fp, #3440
	sub	r3, r3, #12
	sub	r3, r3, #4
	mov	r1, r3
	ldr	r0, [fp, #-3928]
	bl	_ZNSt7__cxx1112basic_stringIcSt11char_traitsIcESaIcEEaSEOS4_
	sub	r3, fp, #3440
	sub	r3, r3, #12
	sub	r3, r3, #4
	mov	r0, r3
	bl	_ZNSt7__cxx1112basic_stringIcSt11char_traitsIcESaIcEED1Ev
	sub	r3, fp, #3408
	sub	r3, r3, #12
	sub	r3, r3, #12
	mov	r0, r3
	bl	_ZNSt7__cxx1112basic_stringIcSt11char_traitsIcESaIcEED1Ev
	sub	r3, fp, #3392
	sub	r3, r3, #12
	sub	r3, r3, #4
	mov	r0, r3
	bl	_ZNSt7__cxx1112basic_stringIcSt11char_traitsIcESaIcEED1Ev
	sub	r3, fp, #3360
	sub	r3, r3, #12
	sub	r3, r3, #12
	mov	r0, r3
	bl	_ZNSt7__cxx1112basic_stringIcSt11char_traitsIcESaIcEED1Ev
	sub	r3, fp, #3344
	sub	r3, r3, #12
	sub	r3, r3, #4
	mov	r0, r3
	bl	_ZNSt7__cxx1112basic_stringIcSt11char_traitsIcESaIcEED1Ev
	sub	r3, fp, #3312
	sub	r3, r3, #12
	sub	r3, r3, #12
	mov	r0, r3
	bl	_ZNSt7__cxx1112basic_stringIcSt11char_traitsIcESaIcEED1Ev
	sub	r3, fp, #3248
	sub	r3, r3, #12
	sub	r3, r3, #4
	mov	r0, r3
	bl	_ZNSt7__cxx1112basic_stringIcSt11char_traitsIcESaIcEED1Ev
	sub	r3, fp, #3296
	sub	r3, r3, #12
	sub	r3, r3, #4
	mov	r0, r3
	bl	_ZNSt7__cxx1112basic_stringIcSt11char_traitsIcESaIcEED1Ev
	sub	r3, fp, #3264
	sub	r3, r3, #12
	sub	r3, r3, #12
	mov	r0, r3
	bl	_ZNSt7__cxx1112basic_stringIcSt11char_traitsIcESaIcEED1Ev
	b	.L940
.L646:
	sub	r3, fp, #3216
	sub	r3, r3, #12
	sub	r3, r3, #12
	ldr	r1, [fp, #-44]
	mov	r0, r3
.LEHB283:
	bl	_Z12get_registerB5cxx11j
	sub	r3, fp, #3216
	sub	r3, r3, #12
	sub	r3, r3, #12
	ldr	r1, .L941+44
	mov	r0, r3
	bl	_ZSteqIcSt11char_traitsIcESaIcEEbRKNSt7__cxx1112basic_stringIT_T0_T1_EEPKS5_
	mov	r3, r0
	mov	r4, r3
	sub	r3, fp, #3216
	sub	r3, r3, #12
	sub	r3, r3, #12
	mov	r0, r3
	bl	_ZNSt7__cxx1112basic_stringIcSt11char_traitsIcESaIcEED1Ev
	cmp	r4, #0
	beq	.L650
	sub	r3, fp, #3024
	sub	r3, r3, #12
	sub	r3, r3, #12
	sub	r2, fp, #3824
	sub	r2, r2, #12
	sub	r2, r2, #12
	ldr	r1, .L941+28
	mov	r0, r3
	bl	_ZStplIcSt11char_traitsIcESaIcEENSt7__cxx1112basic_stringIT_T0_T1_EEPKS5_RKS8_
.LEHE283:
	sub	r3, fp, #3056
	sub	r3, r3, #12
	sub	r3, r3, #4
	sub	r1, fp, #3024
	sub	r1, r1, #12
	sub	r1, r1, #12
	ldr	r2, .L941+20
	mov	r0, r3
.LEHB284:
	bl	_ZStplIcSt11char_traitsIcESaIcEENSt7__cxx1112basic_stringIT_T0_T1_EEOS8_PKS5_
.LEHE284:
	sub	r3, fp, #3008
	sub	r3, r3, #12
	sub	r3, r3, #4
	ldr	r1, [fp, #-44]
	mov	r0, r3
.LEHB285:
	bl	_Z12get_registerB5cxx11j
.LEHE285:
	sub	r3, fp, #3072
	sub	r3, r3, #12
	sub	r3, r3, #12
	sub	r2, fp, #3008
	sub	r2, r2, #12
	sub	r2, r2, #4
	sub	r1, fp, #3056
	sub	r1, r1, #12
	sub	r1, r1, #4
	mov	r0, r3
.LEHB286:
	bl	_ZStplIcSt11char_traitsIcESaIcEENSt7__cxx1112basic_stringIT_T0_T1_EEOS8_S9_
.LEHE286:
	sub	r3, fp, #3104
	sub	r3, r3, #12
	sub	r3, r3, #4
	sub	r2, fp, #3856
	sub	r2, r2, #12
	sub	r2, r2, #4
	sub	r1, fp, #3072
	sub	r1, r1, #12
	sub	r1, r1, #12
	mov	r0, r3
.LEHB287:
	bl	_ZStplIcSt11char_traitsIcESaIcEENSt7__cxx1112basic_stringIT_T0_T1_EEOS8_RKS8_
.LEHE287:
	sub	r3, fp, #3120
	sub	r3, r3, #12
	sub	r3, r3, #12
	sub	r1, fp, #3104
	sub	r1, r1, #12
	sub	r1, r1, #4
	ldr	r2, .L941+60
	mov	r0, r3
.LEHB288:
	bl	_ZStplIcSt11char_traitsIcESaIcEENSt7__cxx1112basic_stringIT_T0_T1_EEOS8_PKS5_
.LEHE288:
	sub	r3, fp, #3152
	sub	r3, r3, #12
	sub	r3, r3, #4
	sub	r2, fp, #3904
	sub	r2, r2, #12
	sub	r2, r2, #4
	sub	r1, fp, #3120
	sub	r1, r1, #12
	sub	r1, r1, #12
	mov	r0, r3
.LEHB289:
	bl	_ZStplIcSt11char_traitsIcESaIcEENSt7__cxx1112basic_stringIT_T0_T1_EEOS8_RKS8_
.LEHE289:
	sub	r3, fp, #3168
	sub	r3, r3, #12
	sub	r3, r3, #12
	sub	r1, fp, #3152
	sub	r1, r1, #12
	sub	r1, r1, #4
	ldr	r2, .L941+64
	mov	r0, r3
.LEHB290:
	bl	_ZStplIcSt11char_traitsIcESaIcEENSt7__cxx1112basic_stringIT_T0_T1_EEOS8_PKS5_
.LEHE290:
	sub	r3, fp, #3200
	sub	r3, r3, #12
	sub	r3, r3, #4
	sub	r2, fp, #3872
	sub	r2, r2, #12
	sub	r2, r2, #12
	sub	r1, fp, #3168
	sub	r1, r1, #12
	sub	r1, r1, #12
	mov	r0, r3
.LEHB291:
	bl	_ZStplIcSt11char_traitsIcESaIcEENSt7__cxx1112basic_stringIT_T0_T1_EEOS8_RKS8_
.LEHE291:
	sub	r3, fp, #3200
	sub	r3, r3, #12
	sub	r3, r3, #4
	mov	r1, r3
	ldr	r0, [fp, #-3928]
	bl	_ZNSt7__cxx1112basic_stringIcSt11char_traitsIcESaIcEEaSEOS4_
	sub	r3, fp, #3200
	sub	r3, r3, #12
	sub	r3, r3, #4
	mov	r0, r3
	bl	_ZNSt7__cxx1112basic_stringIcSt11char_traitsIcESaIcEED1Ev
	sub	r3, fp, #3168
	sub	r3, r3, #12
	sub	r3, r3, #12
	mov	r0, r3
	bl	_ZNSt7__cxx1112basic_stringIcSt11char_traitsIcESaIcEED1Ev
	sub	r3, fp, #3152
	sub	r3, r3, #12
	sub	r3, r3, #4
	mov	r0, r3
	bl	_ZNSt7__cxx1112basic_stringIcSt11char_traitsIcESaIcEED1Ev
	sub	r3, fp, #3120
	sub	r3, r3, #12
	sub	r3, r3, #12
	mov	r0, r3
	bl	_ZNSt7__cxx1112basic_stringIcSt11char_traitsIcESaIcEED1Ev
	sub	r3, fp, #3104
	sub	r3, r3, #12
	sub	r3, r3, #4
	mov	r0, r3
	bl	_ZNSt7__cxx1112basic_stringIcSt11char_traitsIcESaIcEED1Ev
	sub	r3, fp, #3072
	sub	r3, r3, #12
	sub	r3, r3, #12
	mov	r0, r3
	bl	_ZNSt7__cxx1112basic_stringIcSt11char_traitsIcESaIcEED1Ev
	sub	r3, fp, #3008
	sub	r3, r3, #12
	sub	r3, r3, #4
	mov	r0, r3
	bl	_ZNSt7__cxx1112basic_stringIcSt11char_traitsIcESaIcEED1Ev
	sub	r3, fp, #3056
	sub	r3, r3, #12
	sub	r3, r3, #4
	mov	r0, r3
	bl	_ZNSt7__cxx1112basic_stringIcSt11char_traitsIcESaIcEED1Ev
	sub	r3, fp, #3024
	sub	r3, r3, #12
	sub	r3, r3, #12
	mov	r0, r3
	bl	_ZNSt7__cxx1112basic_stringIcSt11char_traitsIcESaIcEED1Ev
	b	.L940
.L650:
	sub	r3, fp, #2816
	sub	r3, r3, #12
	sub	r3, r3, #4
	sub	r2, fp, #3824
	sub	r2, r2, #12
	sub	r2, r2, #12
	ldr	r1, .L941+28
	mov	r0, r3
.LEHB292:
	bl	_ZStplIcSt11char_traitsIcESaIcEENSt7__cxx1112basic_stringIT_T0_T1_EEPKS5_RKS8_
.LEHE292:
	sub	r3, fp, #2832
	sub	r3, r3, #12
	sub	r3, r3, #12
	sub	r1, fp, #2816
	sub	r1, r1, #12
	sub	r1, r1, #4
	ldr	r2, .L941+56
	mov	r0, r3
.LEHB293:
	bl	_ZStplIcSt11char_traitsIcESaIcEENSt7__cxx1112basic_stringIT_T0_T1_EEOS8_PKS5_
.LEHE293:
	sub	r3, fp, #2784
	sub	r3, r3, #12
	sub	r3, r3, #12
	ldr	r1, [fp, #-44]
	mov	r0, r3
.LEHB294:
	bl	_Z12get_registerB5cxx11j
.LEHE294:
	sub	r3, fp, #2864
	sub	r3, r3, #12
	sub	r3, r3, #4
	sub	r2, fp, #2784
	sub	r2, r2, #12
	sub	r2, r2, #12
	sub	r1, fp, #2832
	sub	r1, r1, #12
	sub	r1, r1, #12
	mov	r0, r3
.LEHB295:
	bl	_ZStplIcSt11char_traitsIcESaIcEENSt7__cxx1112basic_stringIT_T0_T1_EEOS8_S9_
.LEHE295:
	sub	r3, fp, #2880
	sub	r3, r3, #12
	sub	r3, r3, #12
	sub	r2, fp, #3856
	sub	r2, r2, #12
	sub	r2, r2, #4
	sub	r1, fp, #2864
	sub	r1, r1, #12
	sub	r1, r1, #4
	mov	r0, r3
.LEHB296:
	bl	_ZStplIcSt11char_traitsIcESaIcEENSt7__cxx1112basic_stringIT_T0_T1_EEOS8_RKS8_
.LEHE296:
	sub	r3, fp, #2912
	sub	r3, r3, #12
	sub	r3, r3, #4
	sub	r1, fp, #2880
	sub	r1, r1, #12
	sub	r1, r1, #12
	ldr	r2, .L941+60
	mov	r0, r3
.LEHB297:
	bl	_ZStplIcSt11char_traitsIcESaIcEENSt7__cxx1112basic_stringIT_T0_T1_EEOS8_PKS5_
.LEHE297:
	sub	r3, fp, #2928
	sub	r3, r3, #12
	sub	r3, r3, #12
	sub	r2, fp, #3904
	sub	r2, r2, #12
	sub	r2, r2, #4
	sub	r1, fp, #2912
	sub	r1, r1, #12
	sub	r1, r1, #4
	mov	r0, r3
.LEHB298:
	bl	_ZStplIcSt11char_traitsIcESaIcEENSt7__cxx1112basic_stringIT_T0_T1_EEOS8_RKS8_
.LEHE298:
	sub	r3, fp, #2960
	sub	r3, r3, #12
	sub	r3, r3, #4
	sub	r1, fp, #2928
	sub	r1, r1, #12
	sub	r1, r1, #12
	ldr	r2, .L941+64
	mov	r0, r3
.LEHB299:
	bl	_ZStplIcSt11char_traitsIcESaIcEENSt7__cxx1112basic_stringIT_T0_T1_EEOS8_PKS5_
.LEHE299:
	sub	r3, fp, #2976
	sub	r3, r3, #12
	sub	r3, r3, #12
	sub	r2, fp, #3872
	sub	r2, r2, #12
	sub	r2, r2, #12
	sub	r1, fp, #2960
	sub	r1, r1, #12
	sub	r1, r1, #4
	mov	r0, r3
.LEHB300:
	bl	_ZStplIcSt11char_traitsIcESaIcEENSt7__cxx1112basic_stringIT_T0_T1_EEOS8_RKS8_
.LEHE300:
	sub	r3, fp, #2976
	sub	r3, r3, #12
	sub	r3, r3, #12
	mov	r1, r3
	ldr	r0, [fp, #-3928]
	bl	_ZNSt7__cxx1112basic_stringIcSt11char_traitsIcESaIcEEaSEOS4_
	sub	r3, fp, #2976
	sub	r3, r3, #12
	sub	r3, r3, #12
	mov	r0, r3
	bl	_ZNSt7__cxx1112basic_stringIcSt11char_traitsIcESaIcEED1Ev
	sub	r3, fp, #2960
	sub	r3, r3, #12
	sub	r3, r3, #4
	mov	r0, r3
	bl	_ZNSt7__cxx1112basic_stringIcSt11char_traitsIcESaIcEED1Ev
	sub	r3, fp, #2928
	sub	r3, r3, #12
	sub	r3, r3, #12
	mov	r0, r3
	bl	_ZNSt7__cxx1112basic_stringIcSt11char_traitsIcESaIcEED1Ev
	sub	r3, fp, #2912
	sub	r3, r3, #12
	sub	r3, r3, #4
	mov	r0, r3
	bl	_ZNSt7__cxx1112basic_stringIcSt11char_traitsIcESaIcEED1Ev
	sub	r3, fp, #2880
	sub	r3, r3, #12
	sub	r3, r3, #12
	mov	r0, r3
	bl	_ZNSt7__cxx1112basic_stringIcSt11char_traitsIcESaIcEED1Ev
	sub	r3, fp, #2864
	sub	r3, r3, #12
	sub	r3, r3, #4
	mov	r0, r3
	bl	_ZNSt7__cxx1112basic_stringIcSt11char_traitsIcESaIcEED1Ev
	sub	r3, fp, #2784
	sub	r3, r3, #12
	sub	r3, r3, #12
	mov	r0, r3
	bl	_ZNSt7__cxx1112basic_stringIcSt11char_traitsIcESaIcEED1Ev
	sub	r3, fp, #2832
	sub	r3, r3, #12
	sub	r3, r3, #12
	mov	r0, r3
	bl	_ZNSt7__cxx1112basic_stringIcSt11char_traitsIcESaIcEED1Ev
	sub	r3, fp, #2816
	sub	r3, r3, #12
	sub	r3, r3, #4
	mov	r0, r3
	bl	_ZNSt7__cxx1112basic_stringIcSt11char_traitsIcESaIcEED1Ev
	b	.L940
.L645:
	ldr	r3, [fp, #-28]
	cmp	r3, #1
	bne	.L652
	sub	r3, fp, #2768
	sub	r3, r3, #12
	sub	r3, r3, #4
	ldr	r1, [fp, #-44]
	mov	r0, r3
.LEHB301:
	bl	_Z12get_registerB5cxx11j
	sub	r3, fp, #2768
	sub	r3, r3, #12
	sub	r3, r3, #4
	ldr	r1, .L941+44
	mov	r0, r3
	bl	_ZSteqIcSt11char_traitsIcESaIcEEbRKNSt7__cxx1112basic_stringIT_T0_T1_EEPKS5_
	mov	r3, r0
	mov	r4, r3
	sub	r3, fp, #2768
	sub	r3, r3, #12
	sub	r3, r3, #4
	mov	r0, r3
	bl	_ZNSt7__cxx1112basic_stringIcSt11char_traitsIcESaIcEED1Ev
	cmp	r4, #0
	beq	.L653
	sub	r3, fp, #2576
	sub	r3, r3, #12
	sub	r3, r3, #4
	sub	r2, fp, #3824
	sub	r2, r2, #12
	sub	r2, r2, #12
	ldr	r1, .L941+28
	mov	r0, r3
	bl	_ZStplIcSt11char_traitsIcESaIcEENSt7__cxx1112basic_stringIT_T0_T1_EEPKS5_RKS8_
.LEHE301:
	sub	r3, fp, #2592
	sub	r3, r3, #12
	sub	r3, r3, #12
	sub	r1, fp, #2576
	sub	r1, r1, #12
	sub	r1, r1, #4
	ldr	r2, .L941+48
	mov	r0, r3
.LEHB302:
	bl	_ZStplIcSt11char_traitsIcESaIcEENSt7__cxx1112basic_stringIT_T0_T1_EEOS8_PKS5_
.LEHE302:
	sub	r3, fp, #2544
	sub	r3, r3, #12
	sub	r3, r3, #12
	ldr	r1, [fp, #-44]
	mov	r0, r3
.LEHB303:
	bl	_Z12get_registerB5cxx11j
.LEHE303:
	sub	r3, fp, #2624
	sub	r3, r3, #12
	sub	r3, r3, #4
	sub	r2, fp, #2544
	sub	r2, r2, #12
	sub	r2, r2, #12
	sub	r1, fp, #2592
	sub	r1, r1, #12
	sub	r1, r1, #12
	mov	r0, r3
.LEHB304:
	bl	_ZStplIcSt11char_traitsIcESaIcEENSt7__cxx1112basic_stringIT_T0_T1_EEOS8_S9_
.LEHE304:
	sub	r3, fp, #2640
	sub	r3, r3, #12
	sub	r3, r3, #12
	sub	r2, fp, #3856
	sub	r2, r2, #12
	sub	r2, r2, #4
	sub	r1, fp, #2624
	sub	r1, r1, #12
	sub	r1, r1, #4
	mov	r0, r3
.LEHB305:
	bl	_ZStplIcSt11char_traitsIcESaIcEENSt7__cxx1112basic_stringIT_T0_T1_EEOS8_RKS8_
.LEHE305:
	sub	r3, fp, #2672
	sub	r3, r3, #12
	sub	r3, r3, #4
	sub	r1, fp, #2640
	sub	r1, r1, #12
	sub	r1, r1, #12
	ldr	r2, .L941+60
	mov	r0, r3
.LEHB306:
	bl	_ZStplIcSt11char_traitsIcESaIcEENSt7__cxx1112basic_stringIT_T0_T1_EEOS8_PKS5_
.LEHE306:
	sub	r3, fp, #2688
	sub	r3, r3, #12
	sub	r3, r3, #12
	sub	r2, fp, #3904
	sub	r2, r2, #12
	sub	r2, r2, #4
	sub	r1, fp, #2672
	sub	r1, r1, #12
	sub	r1, r1, #4
	mov	r0, r3
.LEHB307:
	bl	_ZStplIcSt11char_traitsIcESaIcEENSt7__cxx1112basic_stringIT_T0_T1_EEOS8_RKS8_
.LEHE307:
	sub	r3, fp, #2720
	sub	r3, r3, #12
	sub	r3, r3, #4
	sub	r1, fp, #2688
	sub	r1, r1, #12
	sub	r1, r1, #12
	ldr	r2, .L941+64
	mov	r0, r3
.LEHB308:
	bl	_ZStplIcSt11char_traitsIcESaIcEENSt7__cxx1112basic_stringIT_T0_T1_EEOS8_PKS5_
.LEHE308:
	sub	r3, fp, #2736
	sub	r3, r3, #12
	sub	r3, r3, #12
	sub	r2, fp, #3872
	sub	r2, r2, #12
	sub	r2, r2, #12
	sub	r1, fp, #2720
	sub	r1, r1, #12
	sub	r1, r1, #4
	mov	r0, r3
.LEHB309:
	bl	_ZStplIcSt11char_traitsIcESaIcEENSt7__cxx1112basic_stringIT_T0_T1_EEOS8_RKS8_
.LEHE309:
	sub	r3, fp, #2736
	sub	r3, r3, #12
	sub	r3, r3, #12
	mov	r1, r3
	ldr	r0, [fp, #-3928]
	bl	_ZNSt7__cxx1112basic_stringIcSt11char_traitsIcESaIcEEaSEOS4_
	sub	r3, fp, #2736
	sub	r3, r3, #12
	sub	r3, r3, #12
	mov	r0, r3
	bl	_ZNSt7__cxx1112basic_stringIcSt11char_traitsIcESaIcEED1Ev
	sub	r3, fp, #2720
	sub	r3, r3, #12
	sub	r3, r3, #4
	mov	r0, r3
	bl	_ZNSt7__cxx1112basic_stringIcSt11char_traitsIcESaIcEED1Ev
	sub	r3, fp, #2688
	sub	r3, r3, #12
	sub	r3, r3, #12
	mov	r0, r3
	bl	_ZNSt7__cxx1112basic_stringIcSt11char_traitsIcESaIcEED1Ev
	sub	r3, fp, #2672
	sub	r3, r3, #12
	sub	r3, r3, #4
	mov	r0, r3
	bl	_ZNSt7__cxx1112basic_stringIcSt11char_traitsIcESaIcEED1Ev
	sub	r3, fp, #2640
	sub	r3, r3, #12
	sub	r3, r3, #12
	mov	r0, r3
	bl	_ZNSt7__cxx1112basic_stringIcSt11char_traitsIcESaIcEED1Ev
	sub	r3, fp, #2624
	sub	r3, r3, #12
	sub	r3, r3, #4
	mov	r0, r3
	bl	_ZNSt7__cxx1112basic_stringIcSt11char_traitsIcESaIcEED1Ev
	sub	r3, fp, #2544
	sub	r3, r3, #12
	sub	r3, r3, #12
	mov	r0, r3
	bl	_ZNSt7__cxx1112basic_stringIcSt11char_traitsIcESaIcEED1Ev
	sub	r3, fp, #2592
	sub	r3, r3, #12
	sub	r3, r3, #12
	mov	r0, r3
	bl	_ZNSt7__cxx1112basic_stringIcSt11char_traitsIcESaIcEED1Ev
	sub	r3, fp, #2576
	sub	r3, r3, #12
	sub	r3, r3, #4
	mov	r0, r3
	bl	_ZNSt7__cxx1112basic_stringIcSt11char_traitsIcESaIcEED1Ev
	b	.L940
.L942:
	.align	2
.L941:
	.word	.LC33
	.word	.LC7
	.word	.LC39
	.word	.LC8
	.word	.LC42
	.word	.LC46
	.word	.LC49
	.word	.LC41
	.word	.LC51
	.word	.LC50
	.word	.LC45
	.word	.LC40
	.word	.LC48
	.word	.LC52
	.word	.LC47
	.word	.LC43
	.word	.LC44
.L653:
	sub	r3, fp, #2352
	sub	r3, r3, #12
	sub	r3, r3, #12
	sub	r2, fp, #3824
	sub	r2, r2, #12
	sub	r2, r2, #12
	ldr	r1, .L941+28
	mov	r0, r3
.LEHB310:
	bl	_ZStplIcSt11char_traitsIcESaIcEENSt7__cxx1112basic_stringIT_T0_T1_EEPKS5_RKS8_
.LEHE310:
	sub	r3, fp, #2384
	sub	r3, r3, #12
	sub	r3, r3, #4
	sub	r1, fp, #2352
	sub	r1, r1, #12
	sub	r1, r1, #12
	ldr	r2, .L941+24
	mov	r0, r3
.LEHB311:
	bl	_ZStplIcSt11char_traitsIcESaIcEENSt7__cxx1112basic_stringIT_T0_T1_EEOS8_PKS5_
.LEHE311:
	sub	r3, fp, #2336
	sub	r3, r3, #12
	sub	r3, r3, #4
	ldr	r1, [fp, #-44]
	mov	r0, r3
.LEHB312:
	bl	_Z12get_registerB5cxx11j
.LEHE312:
	sub	r3, fp, #2400
	sub	r3, r3, #12
	sub	r3, r3, #12
	sub	r2, fp, #2336
	sub	r2, r2, #12
	sub	r2, r2, #4
	sub	r1, fp, #2384
	sub	r1, r1, #12
	sub	r1, r1, #4
	mov	r0, r3
.LEHB313:
	bl	_ZStplIcSt11char_traitsIcESaIcEENSt7__cxx1112basic_stringIT_T0_T1_EEOS8_S9_
.LEHE313:
	sub	r3, fp, #2432
	sub	r3, r3, #12
	sub	r3, r3, #4
	sub	r2, fp, #3856
	sub	r2, r2, #12
	sub	r2, r2, #4
	sub	r1, fp, #2400
	sub	r1, r1, #12
	sub	r1, r1, #12
	mov	r0, r3
.LEHB314:
	bl	_ZStplIcSt11char_traitsIcESaIcEENSt7__cxx1112basic_stringIT_T0_T1_EEOS8_RKS8_
.LEHE314:
	sub	r3, fp, #2448
	sub	r3, r3, #12
	sub	r3, r3, #12
	sub	r1, fp, #2432
	sub	r1, r1, #12
	sub	r1, r1, #4
	ldr	r2, .L941+60
	mov	r0, r3
.LEHB315:
	bl	_ZStplIcSt11char_traitsIcESaIcEENSt7__cxx1112basic_stringIT_T0_T1_EEOS8_PKS5_
.LEHE315:
	sub	r3, fp, #2480
	sub	r3, r3, #12
	sub	r3, r3, #4
	sub	r2, fp, #3904
	sub	r2, r2, #12
	sub	r2, r2, #4
	sub	r1, fp, #2448
	sub	r1, r1, #12
	sub	r1, r1, #12
	mov	r0, r3
.LEHB316:
	bl	_ZStplIcSt11char_traitsIcESaIcEENSt7__cxx1112basic_stringIT_T0_T1_EEOS8_RKS8_
.LEHE316:
	sub	r3, fp, #2496
	sub	r3, r3, #12
	sub	r3, r3, #12
	sub	r1, fp, #2480
	sub	r1, r1, #12
	sub	r1, r1, #4
	ldr	r2, .L941+64
	mov	r0, r3
.LEHB317:
	bl	_ZStplIcSt11char_traitsIcESaIcEENSt7__cxx1112basic_stringIT_T0_T1_EEOS8_PKS5_
.LEHE317:
	sub	r3, fp, #2528
	sub	r3, r3, #12
	sub	r3, r3, #4
	sub	r2, fp, #3872
	sub	r2, r2, #12
	sub	r2, r2, #12
	sub	r1, fp, #2496
	sub	r1, r1, #12
	sub	r1, r1, #12
	mov	r0, r3
.LEHB318:
	bl	_ZStplIcSt11char_traitsIcESaIcEENSt7__cxx1112basic_stringIT_T0_T1_EEOS8_RKS8_
.LEHE318:
	sub	r3, fp, #2528
	sub	r3, r3, #12
	sub	r3, r3, #4
	mov	r1, r3
	ldr	r0, [fp, #-3928]
	bl	_ZNSt7__cxx1112basic_stringIcSt11char_traitsIcESaIcEEaSEOS4_
	sub	r3, fp, #2528
	sub	r3, r3, #12
	sub	r3, r3, #4
	mov	r0, r3
	bl	_ZNSt7__cxx1112basic_stringIcSt11char_traitsIcESaIcEED1Ev
	sub	r3, fp, #2496
	sub	r3, r3, #12
	sub	r3, r3, #12
	mov	r0, r3
	bl	_ZNSt7__cxx1112basic_stringIcSt11char_traitsIcESaIcEED1Ev
	sub	r3, fp, #2480
	sub	r3, r3, #12
	sub	r3, r3, #4
	mov	r0, r3
	bl	_ZNSt7__cxx1112basic_stringIcSt11char_traitsIcESaIcEED1Ev
	sub	r3, fp, #2448
	sub	r3, r3, #12
	sub	r3, r3, #12
	mov	r0, r3
	bl	_ZNSt7__cxx1112basic_stringIcSt11char_traitsIcESaIcEED1Ev
	sub	r3, fp, #2432
	sub	r3, r3, #12
	sub	r3, r3, #4
	mov	r0, r3
	bl	_ZNSt7__cxx1112basic_stringIcSt11char_traitsIcESaIcEED1Ev
	sub	r3, fp, #2400
	sub	r3, r3, #12
	sub	r3, r3, #12
	mov	r0, r3
	bl	_ZNSt7__cxx1112basic_stringIcSt11char_traitsIcESaIcEED1Ev
	sub	r3, fp, #2336
	sub	r3, r3, #12
	sub	r3, r3, #4
	mov	r0, r3
	bl	_ZNSt7__cxx1112basic_stringIcSt11char_traitsIcESaIcEED1Ev
	sub	r3, fp, #2384
	sub	r3, r3, #12
	sub	r3, r3, #4
	mov	r0, r3
	bl	_ZNSt7__cxx1112basic_stringIcSt11char_traitsIcESaIcEED1Ev
	sub	r3, fp, #2352
	sub	r3, r3, #12
	sub	r3, r3, #12
	mov	r0, r3
	bl	_ZNSt7__cxx1112basic_stringIcSt11char_traitsIcESaIcEED1Ev
	b	.L940
.L652:
	sub	r3, fp, #2304
	sub	r3, r3, #12
	sub	r3, r3, #12
	ldr	r1, [fp, #-44]
	mov	r0, r3
.LEHB319:
	bl	_Z12get_registerB5cxx11j
	sub	r3, fp, #2304
	sub	r3, r3, #12
	sub	r3, r3, #12
	ldr	r1, .L941+44
	mov	r0, r3
	bl	_ZSteqIcSt11char_traitsIcESaIcEEbRKNSt7__cxx1112basic_stringIT_T0_T1_EEPKS5_
	mov	r3, r0
	mov	r4, r3
	sub	r3, fp, #2304
	sub	r3, r3, #12
	sub	r3, r3, #12
	mov	r0, r3
	bl	_ZNSt7__cxx1112basic_stringIcSt11char_traitsIcESaIcEED1Ev
	cmp	r4, #0
	beq	.L655
	sub	r3, fp, #2112
	sub	r3, r3, #12
	sub	r3, r3, #12
	sub	r2, fp, #3824
	sub	r2, r2, #12
	sub	r2, r2, #12
	ldr	r1, .L941+28
	mov	r0, r3
	bl	_ZStplIcSt11char_traitsIcESaIcEENSt7__cxx1112basic_stringIT_T0_T1_EEPKS5_RKS8_
.LEHE319:
	sub	r3, fp, #2144
	sub	r3, r3, #12
	sub	r3, r3, #4
	sub	r1, fp, #2112
	sub	r1, r1, #12
	sub	r1, r1, #12
	ldr	r2, .L941+36
	mov	r0, r3
.LEHB320:
	bl	_ZStplIcSt11char_traitsIcESaIcEENSt7__cxx1112basic_stringIT_T0_T1_EEOS8_PKS5_
.LEHE320:
	sub	r3, fp, #2096
	sub	r3, r3, #12
	sub	r3, r3, #4
	ldr	r1, [fp, #-44]
	mov	r0, r3
.LEHB321:
	bl	_Z12get_registerB5cxx11j
.LEHE321:
	sub	r3, fp, #2160
	sub	r3, r3, #12
	sub	r3, r3, #12
	sub	r2, fp, #2096
	sub	r2, r2, #12
	sub	r2, r2, #4
	sub	r1, fp, #2144
	sub	r1, r1, #12
	sub	r1, r1, #4
	mov	r0, r3
.LEHB322:
	bl	_ZStplIcSt11char_traitsIcESaIcEENSt7__cxx1112basic_stringIT_T0_T1_EEOS8_S9_
.LEHE322:
	sub	r3, fp, #2192
	sub	r3, r3, #12
	sub	r3, r3, #4
	sub	r2, fp, #3856
	sub	r2, r2, #12
	sub	r2, r2, #4
	sub	r1, fp, #2160
	sub	r1, r1, #12
	sub	r1, r1, #12
	mov	r0, r3
.LEHB323:
	bl	_ZStplIcSt11char_traitsIcESaIcEENSt7__cxx1112basic_stringIT_T0_T1_EEOS8_RKS8_
.LEHE323:
	sub	r3, fp, #2208
	sub	r3, r3, #12
	sub	r3, r3, #12
	sub	r1, fp, #2192
	sub	r1, r1, #12
	sub	r1, r1, #4
	ldr	r2, .L941+60
	mov	r0, r3
.LEHB324:
	bl	_ZStplIcSt11char_traitsIcESaIcEENSt7__cxx1112basic_stringIT_T0_T1_EEOS8_PKS5_
.LEHE324:
	sub	r3, fp, #2240
	sub	r3, r3, #12
	sub	r3, r3, #4
	sub	r2, fp, #3904
	sub	r2, r2, #12
	sub	r2, r2, #4
	sub	r1, fp, #2208
	sub	r1, r1, #12
	sub	r1, r1, #12
	mov	r0, r3
.LEHB325:
	bl	_ZStplIcSt11char_traitsIcESaIcEENSt7__cxx1112basic_stringIT_T0_T1_EEOS8_RKS8_
.LEHE325:
	sub	r3, fp, #2256
	sub	r3, r3, #12
	sub	r3, r3, #12
	sub	r1, fp, #2240
	sub	r1, r1, #12
	sub	r1, r1, #4
	ldr	r2, .L941+64
	mov	r0, r3
.LEHB326:
	bl	_ZStplIcSt11char_traitsIcESaIcEENSt7__cxx1112basic_stringIT_T0_T1_EEOS8_PKS5_
.LEHE326:
	sub	r3, fp, #2288
	sub	r3, r3, #12
	sub	r3, r3, #4
	sub	r2, fp, #3872
	sub	r2, r2, #12
	sub	r2, r2, #12
	sub	r1, fp, #2256
	sub	r1, r1, #12
	sub	r1, r1, #12
	mov	r0, r3
.LEHB327:
	bl	_ZStplIcSt11char_traitsIcESaIcEENSt7__cxx1112basic_stringIT_T0_T1_EEOS8_RKS8_
.LEHE327:
	sub	r3, fp, #2288
	sub	r3, r3, #12
	sub	r3, r3, #4
	mov	r1, r3
	ldr	r0, [fp, #-3928]
	bl	_ZNSt7__cxx1112basic_stringIcSt11char_traitsIcESaIcEEaSEOS4_
	sub	r3, fp, #2288
	sub	r3, r3, #12
	sub	r3, r3, #4
	mov	r0, r3
	bl	_ZNSt7__cxx1112basic_stringIcSt11char_traitsIcESaIcEED1Ev
	sub	r3, fp, #2256
	sub	r3, r3, #12
	sub	r3, r3, #12
	mov	r0, r3
	bl	_ZNSt7__cxx1112basic_stringIcSt11char_traitsIcESaIcEED1Ev
	sub	r3, fp, #2240
	sub	r3, r3, #12
	sub	r3, r3, #4
	mov	r0, r3
	bl	_ZNSt7__cxx1112basic_stringIcSt11char_traitsIcESaIcEED1Ev
	sub	r3, fp, #2208
	sub	r3, r3, #12
	sub	r3, r3, #12
	mov	r0, r3
	bl	_ZNSt7__cxx1112basic_stringIcSt11char_traitsIcESaIcEED1Ev
	sub	r3, fp, #2192
	sub	r3, r3, #12
	sub	r3, r3, #4
	mov	r0, r3
	bl	_ZNSt7__cxx1112basic_stringIcSt11char_traitsIcESaIcEED1Ev
	sub	r3, fp, #2160
	sub	r3, r3, #12
	sub	r3, r3, #12
	mov	r0, r3
	bl	_ZNSt7__cxx1112basic_stringIcSt11char_traitsIcESaIcEED1Ev
	sub	r3, fp, #2096
	sub	r3, r3, #12
	sub	r3, r3, #4
	mov	r0, r3
	bl	_ZNSt7__cxx1112basic_stringIcSt11char_traitsIcESaIcEED1Ev
	sub	r3, fp, #2144
	sub	r3, r3, #12
	sub	r3, r3, #4
	mov	r0, r3
	bl	_ZNSt7__cxx1112basic_stringIcSt11char_traitsIcESaIcEED1Ev
	sub	r3, fp, #2112
	sub	r3, r3, #12
	sub	r3, r3, #12
	mov	r0, r3
	bl	_ZNSt7__cxx1112basic_stringIcSt11char_traitsIcESaIcEED1Ev
	b	.L940
.L655:
	sub	r3, fp, #1904
	sub	r3, r3, #12
	sub	r3, r3, #4
	sub	r2, fp, #3824
	sub	r2, r2, #12
	sub	r2, r2, #12
	ldr	r1, .L941+28
	mov	r0, r3
.LEHB328:
	bl	_ZStplIcSt11char_traitsIcESaIcEENSt7__cxx1112basic_stringIT_T0_T1_EEPKS5_RKS8_
.LEHE328:
	sub	r3, fp, #1920
	sub	r3, r3, #12
	sub	r3, r3, #12
	sub	r1, fp, #1904
	sub	r1, r1, #12
	sub	r1, r1, #4
	ldr	r2, .L941+32
	mov	r0, r3
.LEHB329:
	bl	_ZStplIcSt11char_traitsIcESaIcEENSt7__cxx1112basic_stringIT_T0_T1_EEOS8_PKS5_
.LEHE329:
	sub	r3, fp, #1872
	sub	r3, r3, #12
	sub	r3, r3, #12
	ldr	r1, [fp, #-44]
	mov	r0, r3
.LEHB330:
	bl	_Z12get_registerB5cxx11j
.LEHE330:
	sub	r3, fp, #1952
	sub	r3, r3, #12
	sub	r3, r3, #4
	sub	r2, fp, #1872
	sub	r2, r2, #12
	sub	r2, r2, #12
	sub	r1, fp, #1920
	sub	r1, r1, #12
	sub	r1, r1, #12
	mov	r0, r3
.LEHB331:
	bl	_ZStplIcSt11char_traitsIcESaIcEENSt7__cxx1112basic_stringIT_T0_T1_EEOS8_S9_
.LEHE331:
	sub	r3, fp, #1968
	sub	r3, r3, #12
	sub	r3, r3, #12
	sub	r2, fp, #3856
	sub	r2, r2, #12
	sub	r2, r2, #4
	sub	r1, fp, #1952
	sub	r1, r1, #12
	sub	r1, r1, #4
	mov	r0, r3
.LEHB332:
	bl	_ZStplIcSt11char_traitsIcESaIcEENSt7__cxx1112basic_stringIT_T0_T1_EEOS8_RKS8_
.LEHE332:
	sub	r3, fp, #2000
	sub	r3, r3, #12
	sub	r3, r3, #4
	sub	r1, fp, #1968
	sub	r1, r1, #12
	sub	r1, r1, #12
	ldr	r2, .L941+60
	mov	r0, r3
.LEHB333:
	bl	_ZStplIcSt11char_traitsIcESaIcEENSt7__cxx1112basic_stringIT_T0_T1_EEOS8_PKS5_
.LEHE333:
	sub	r3, fp, #2016
	sub	r3, r3, #12
	sub	r3, r3, #12
	sub	r2, fp, #3904
	sub	r2, r2, #12
	sub	r2, r2, #4
	sub	r1, fp, #2000
	sub	r1, r1, #12
	sub	r1, r1, #4
	mov	r0, r3
.LEHB334:
	bl	_ZStplIcSt11char_traitsIcESaIcEENSt7__cxx1112basic_stringIT_T0_T1_EEOS8_RKS8_
.LEHE334:
	sub	r3, fp, #2048
	sub	r3, r3, #12
	sub	r3, r3, #4
	sub	r1, fp, #2016
	sub	r1, r1, #12
	sub	r1, r1, #12
	ldr	r2, .L941+64
	mov	r0, r3
.LEHB335:
	bl	_ZStplIcSt11char_traitsIcESaIcEENSt7__cxx1112basic_stringIT_T0_T1_EEOS8_PKS5_
.LEHE335:
	sub	r3, fp, #2064
	sub	r3, r3, #12
	sub	r3, r3, #12
	sub	r2, fp, #3872
	sub	r2, r2, #12
	sub	r2, r2, #12
	sub	r1, fp, #2048
	sub	r1, r1, #12
	sub	r1, r1, #4
	mov	r0, r3
.LEHB336:
	bl	_ZStplIcSt11char_traitsIcESaIcEENSt7__cxx1112basic_stringIT_T0_T1_EEOS8_RKS8_
.LEHE336:
	sub	r3, fp, #2064
	sub	r3, r3, #12
	sub	r3, r3, #12
	mov	r1, r3
	ldr	r0, [fp, #-3928]
	bl	_ZNSt7__cxx1112basic_stringIcSt11char_traitsIcESaIcEEaSEOS4_
	sub	r3, fp, #2064
	sub	r3, r3, #12
	sub	r3, r3, #12
	mov	r0, r3
	bl	_ZNSt7__cxx1112basic_stringIcSt11char_traitsIcESaIcEED1Ev
	sub	r3, fp, #2048
	sub	r3, r3, #12
	sub	r3, r3, #4
	mov	r0, r3
	bl	_ZNSt7__cxx1112basic_stringIcSt11char_traitsIcESaIcEED1Ev
	sub	r3, fp, #2016
	sub	r3, r3, #12
	sub	r3, r3, #12
	mov	r0, r3
	bl	_ZNSt7__cxx1112basic_stringIcSt11char_traitsIcESaIcEED1Ev
	sub	r3, fp, #2000
	sub	r3, r3, #12
	sub	r3, r3, #4
	mov	r0, r3
	bl	_ZNSt7__cxx1112basic_stringIcSt11char_traitsIcESaIcEED1Ev
	sub	r3, fp, #1968
	sub	r3, r3, #12
	sub	r3, r3, #12
	mov	r0, r3
	bl	_ZNSt7__cxx1112basic_stringIcSt11char_traitsIcESaIcEED1Ev
	sub	r3, fp, #1952
	sub	r3, r3, #12
	sub	r3, r3, #4
	mov	r0, r3
	bl	_ZNSt7__cxx1112basic_stringIcSt11char_traitsIcESaIcEED1Ev
	sub	r3, fp, #1872
	sub	r3, r3, #12
	sub	r3, r3, #12
	mov	r0, r3
	bl	_ZNSt7__cxx1112basic_stringIcSt11char_traitsIcESaIcEED1Ev
	sub	r3, fp, #1920
	sub	r3, r3, #12
	sub	r3, r3, #12
	mov	r0, r3
	bl	_ZNSt7__cxx1112basic_stringIcSt11char_traitsIcESaIcEED1Ev
	sub	r3, fp, #1904
	sub	r3, r3, #12
	sub	r3, r3, #4
	mov	r0, r3
	bl	_ZNSt7__cxx1112basic_stringIcSt11char_traitsIcESaIcEED1Ev
	b	.L940
.L644:
	ldr	r3, [fp, #-24]
	cmp	r3, #1
	bne	.L657
	ldr	r3, [fp, #-28]
	cmp	r3, #1
	bne	.L658
	sub	r3, fp, #1856
	sub	r3, r3, #12
	sub	r3, r3, #4
	ldr	r1, [fp, #-44]
	mov	r0, r3
.LEHB337:
	bl	_Z12get_registerB5cxx11j
	sub	r3, fp, #1856
	sub	r3, r3, #12
	sub	r3, r3, #4
	ldr	r1, .L941+44
	mov	r0, r3
	bl	_ZSteqIcSt11char_traitsIcESaIcEEbRKNSt7__cxx1112basic_stringIT_T0_T1_EEPKS5_
	mov	r3, r0
	mov	r4, r3
	sub	r3, fp, #1856
	sub	r3, r3, #12
	sub	r3, r3, #4
	mov	r0, r3
	bl	_ZNSt7__cxx1112basic_stringIcSt11char_traitsIcESaIcEED1Ev
	cmp	r4, #0
	beq	.L659
	sub	r3, fp, #1664
	sub	r3, r3, #12
	sub	r3, r3, #4
	sub	r2, fp, #3824
	sub	r2, r2, #12
	sub	r2, r2, #12
	ldr	r1, .L941+52
	mov	r0, r3
	bl	_ZStplIcSt11char_traitsIcESaIcEENSt7__cxx1112basic_stringIT_T0_T1_EEPKS5_RKS8_
.LEHE337:
	sub	r3, fp, #1680
	sub	r3, r3, #12
	sub	r3, r3, #12
	sub	r1, fp, #1664
	sub	r1, r1, #12
	sub	r1, r1, #4
	ldr	r2, .L941+36
	mov	r0, r3
.LEHB338:
	bl	_ZStplIcSt11char_traitsIcESaIcEENSt7__cxx1112basic_stringIT_T0_T1_EEOS8_PKS5_
.LEHE338:
	sub	r3, fp, #1632
	sub	r3, r3, #12
	sub	r3, r3, #12
	ldr	r1, [fp, #-44]
	mov	r0, r3
.LEHB339:
	bl	_Z12get_registerB5cxx11j
.LEHE339:
	sub	r3, fp, #1712
	sub	r3, r3, #12
	sub	r3, r3, #4
	sub	r2, fp, #1632
	sub	r2, r2, #12
	sub	r2, r2, #12
	sub	r1, fp, #1680
	sub	r1, r1, #12
	sub	r1, r1, #12
	mov	r0, r3
.LEHB340:
	bl	_ZStplIcSt11char_traitsIcESaIcEENSt7__cxx1112basic_stringIT_T0_T1_EEOS8_S9_
.LEHE340:
	sub	r3, fp, #1728
	sub	r3, r3, #12
	sub	r3, r3, #12
	sub	r2, fp, #3856
	sub	r2, r2, #12
	sub	r2, r2, #4
	sub	r1, fp, #1712
	sub	r1, r1, #12
	sub	r1, r1, #4
	mov	r0, r3
.LEHB341:
	bl	_ZStplIcSt11char_traitsIcESaIcEENSt7__cxx1112basic_stringIT_T0_T1_EEOS8_RKS8_
.LEHE341:
	sub	r3, fp, #1760
	sub	r3, r3, #12
	sub	r3, r3, #4
	sub	r1, fp, #1728
	sub	r1, r1, #12
	sub	r1, r1, #12
	ldr	r2, .L941+60
	mov	r0, r3
.LEHB342:
	bl	_ZStplIcSt11char_traitsIcESaIcEENSt7__cxx1112basic_stringIT_T0_T1_EEOS8_PKS5_
.LEHE342:
	sub	r3, fp, #1776
	sub	r3, r3, #12
	sub	r3, r3, #12
	sub	r2, fp, #3904
	sub	r2, r2, #12
	sub	r2, r2, #4
	sub	r1, fp, #1760
	sub	r1, r1, #12
	sub	r1, r1, #4
	mov	r0, r3
.LEHB343:
	bl	_ZStplIcSt11char_traitsIcESaIcEENSt7__cxx1112basic_stringIT_T0_T1_EEOS8_RKS8_
.LEHE343:
	sub	r3, fp, #1808
	sub	r3, r3, #12
	sub	r3, r3, #4
	sub	r1, fp, #1776
	sub	r1, r1, #12
	sub	r1, r1, #12
	ldr	r2, .L941+64
	mov	r0, r3
.LEHB344:
	bl	_ZStplIcSt11char_traitsIcESaIcEENSt7__cxx1112basic_stringIT_T0_T1_EEOS8_PKS5_
.LEHE344:
	sub	r3, fp, #1824
	sub	r3, r3, #12
	sub	r3, r3, #12
	sub	r2, fp, #3872
	sub	r2, r2, #12
	sub	r2, r2, #12
	sub	r1, fp, #1808
	sub	r1, r1, #12
	sub	r1, r1, #4
	mov	r0, r3
.LEHB345:
	bl	_ZStplIcSt11char_traitsIcESaIcEENSt7__cxx1112basic_stringIT_T0_T1_EEOS8_RKS8_
.LEHE345:
	sub	r3, fp, #1824
	sub	r3, r3, #12
	sub	r3, r3, #12
	mov	r1, r3
	ldr	r0, [fp, #-3928]
	bl	_ZNSt7__cxx1112basic_stringIcSt11char_traitsIcESaIcEEaSEOS4_
	sub	r3, fp, #1824
	sub	r3, r3, #12
	sub	r3, r3, #12
	mov	r0, r3
	bl	_ZNSt7__cxx1112basic_stringIcSt11char_traitsIcESaIcEED1Ev
	sub	r3, fp, #1808
	sub	r3, r3, #12
	sub	r3, r3, #4
	mov	r0, r3
	bl	_ZNSt7__cxx1112basic_stringIcSt11char_traitsIcESaIcEED1Ev
	sub	r3, fp, #1776
	sub	r3, r3, #12
	sub	r3, r3, #12
	mov	r0, r3
	bl	_ZNSt7__cxx1112basic_stringIcSt11char_traitsIcESaIcEED1Ev
	sub	r3, fp, #1760
	sub	r3, r3, #12
	sub	r3, r3, #4
	mov	r0, r3
	bl	_ZNSt7__cxx1112basic_stringIcSt11char_traitsIcESaIcEED1Ev
	sub	r3, fp, #1728
	sub	r3, r3, #12
	sub	r3, r3, #12
	mov	r0, r3
	bl	_ZNSt7__cxx1112basic_stringIcSt11char_traitsIcESaIcEED1Ev
	sub	r3, fp, #1712
	sub	r3, r3, #12
	sub	r3, r3, #4
	mov	r0, r3
	bl	_ZNSt7__cxx1112basic_stringIcSt11char_traitsIcESaIcEED1Ev
	sub	r3, fp, #1632
	sub	r3, r3, #12
	sub	r3, r3, #12
	mov	r0, r3
	bl	_ZNSt7__cxx1112basic_stringIcSt11char_traitsIcESaIcEED1Ev
	sub	r3, fp, #1680
	sub	r3, r3, #12
	sub	r3, r3, #12
	mov	r0, r3
	bl	_ZNSt7__cxx1112basic_stringIcSt11char_traitsIcESaIcEED1Ev
	sub	r3, fp, #1664
	sub	r3, r3, #12
	sub	r3, r3, #4
	mov	r0, r3
	bl	_ZNSt7__cxx1112basic_stringIcSt11char_traitsIcESaIcEED1Ev
	b	.L940
.L659:
	sub	r3, fp, #1440
	sub	r3, r3, #12
	sub	r3, r3, #12
	sub	r2, fp, #3824
	sub	r2, r2, #12
	sub	r2, r2, #12
	ldr	r1, .L941+52
	mov	r0, r3
.LEHB346:
	bl	_ZStplIcSt11char_traitsIcESaIcEENSt7__cxx1112basic_stringIT_T0_T1_EEPKS5_RKS8_
.LEHE346:
	sub	r3, fp, #1472
	sub	r3, r3, #12
	sub	r3, r3, #4
	sub	r1, fp, #1440
	sub	r1, r1, #12
	sub	r1, r1, #12
	ldr	r2, .L941+40
	mov	r0, r3
.LEHB347:
	bl	_ZStplIcSt11char_traitsIcESaIcEENSt7__cxx1112basic_stringIT_T0_T1_EEOS8_PKS5_
.LEHE347:
	sub	r3, fp, #1424
	sub	r3, r3, #12
	sub	r3, r3, #4
	ldr	r1, [fp, #-44]
	mov	r0, r3
.LEHB348:
	bl	_Z12get_registerB5cxx11j
.LEHE348:
	sub	r3, fp, #1488
	sub	r3, r3, #12
	sub	r3, r3, #12
	sub	r2, fp, #1424
	sub	r2, r2, #12
	sub	r2, r2, #4
	sub	r1, fp, #1472
	sub	r1, r1, #12
	sub	r1, r1, #4
	mov	r0, r3
.LEHB349:
	bl	_ZStplIcSt11char_traitsIcESaIcEENSt7__cxx1112basic_stringIT_T0_T1_EEOS8_S9_
.LEHE349:
	sub	r3, fp, #1520
	sub	r3, r3, #12
	sub	r3, r3, #4
	sub	r2, fp, #3856
	sub	r2, r2, #12
	sub	r2, r2, #4
	sub	r1, fp, #1488
	sub	r1, r1, #12
	sub	r1, r1, #12
	mov	r0, r3
.LEHB350:
	bl	_ZStplIcSt11char_traitsIcESaIcEENSt7__cxx1112basic_stringIT_T0_T1_EEOS8_RKS8_
.LEHE350:
	sub	r3, fp, #1536
	sub	r3, r3, #12
	sub	r3, r3, #12
	sub	r1, fp, #1520
	sub	r1, r1, #12
	sub	r1, r1, #4
	ldr	r2, .L941+60
	mov	r0, r3
.LEHB351:
	bl	_ZStplIcSt11char_traitsIcESaIcEENSt7__cxx1112basic_stringIT_T0_T1_EEOS8_PKS5_
.LEHE351:
	sub	r3, fp, #1568
	sub	r3, r3, #12
	sub	r3, r3, #4
	sub	r2, fp, #3904
	sub	r2, r2, #12
	sub	r2, r2, #4
	sub	r1, fp, #1536
	sub	r1, r1, #12
	sub	r1, r1, #12
	mov	r0, r3
.LEHB352:
	bl	_ZStplIcSt11char_traitsIcESaIcEENSt7__cxx1112basic_stringIT_T0_T1_EEOS8_RKS8_
.LEHE352:
	sub	r3, fp, #1584
	sub	r3, r3, #12
	sub	r3, r3, #12
	sub	r1, fp, #1568
	sub	r1, r1, #12
	sub	r1, r1, #4
	ldr	r2, .L941+64
	mov	r0, r3
.LEHB353:
	bl	_ZStplIcSt11char_traitsIcESaIcEENSt7__cxx1112basic_stringIT_T0_T1_EEOS8_PKS5_
.LEHE353:
	sub	r3, fp, #1616
	sub	r3, r3, #12
	sub	r3, r3, #4
	sub	r2, fp, #3872
	sub	r2, r2, #12
	sub	r2, r2, #12
	sub	r1, fp, #1584
	sub	r1, r1, #12
	sub	r1, r1, #12
	mov	r0, r3
.LEHB354:
	bl	_ZStplIcSt11char_traitsIcESaIcEENSt7__cxx1112basic_stringIT_T0_T1_EEOS8_RKS8_
.LEHE354:
	sub	r3, fp, #1616
	sub	r3, r3, #12
	sub	r3, r3, #4
	mov	r1, r3
	ldr	r0, [fp, #-3928]
	bl	_ZNSt7__cxx1112basic_stringIcSt11char_traitsIcESaIcEEaSEOS4_
	sub	r3, fp, #1616
	sub	r3, r3, #12
	sub	r3, r3, #4
	mov	r0, r3
	bl	_ZNSt7__cxx1112basic_stringIcSt11char_traitsIcESaIcEED1Ev
	sub	r3, fp, #1584
	sub	r3, r3, #12
	sub	r3, r3, #12
	mov	r0, r3
	bl	_ZNSt7__cxx1112basic_stringIcSt11char_traitsIcESaIcEED1Ev
	sub	r3, fp, #1568
	sub	r3, r3, #12
	sub	r3, r3, #4
	mov	r0, r3
	bl	_ZNSt7__cxx1112basic_stringIcSt11char_traitsIcESaIcEED1Ev
	sub	r3, fp, #1536
	sub	r3, r3, #12
	sub	r3, r3, #12
	mov	r0, r3
	bl	_ZNSt7__cxx1112basic_stringIcSt11char_traitsIcESaIcEED1Ev
	sub	r3, fp, #1520
	sub	r3, r3, #12
	sub	r3, r3, #4
	mov	r0, r3
	bl	_ZNSt7__cxx1112basic_stringIcSt11char_traitsIcESaIcEED1Ev
	sub	r3, fp, #1488
	sub	r3, r3, #12
	sub	r3, r3, #12
	mov	r0, r3
	bl	_ZNSt7__cxx1112basic_stringIcSt11char_traitsIcESaIcEED1Ev
	sub	r3, fp, #1424
	sub	r3, r3, #12
	sub	r3, r3, #4
	mov	r0, r3
	bl	_ZNSt7__cxx1112basic_stringIcSt11char_traitsIcESaIcEED1Ev
	sub	r3, fp, #1472
	sub	r3, r3, #12
	sub	r3, r3, #4
	mov	r0, r3
	bl	_ZNSt7__cxx1112basic_stringIcSt11char_traitsIcESaIcEED1Ev
	sub	r3, fp, #1440
	sub	r3, r3, #12
	sub	r3, r3, #12
	mov	r0, r3
	bl	_ZNSt7__cxx1112basic_stringIcSt11char_traitsIcESaIcEED1Ev
	b	.L940
.L658:
	sub	r3, fp, #1392
	sub	r3, r3, #12
	sub	r3, r3, #12
	ldr	r1, [fp, #-44]
	mov	r0, r3
.LEHB355:
	bl	_Z12get_registerB5cxx11j
	sub	r3, fp, #1392
	sub	r3, r3, #12
	sub	r3, r3, #12
	ldr	r1, .L941+44
	mov	r0, r3
	bl	_ZSteqIcSt11char_traitsIcESaIcEEbRKNSt7__cxx1112basic_stringIT_T0_T1_EEPKS5_
	mov	r3, r0
	mov	r4, r3
	sub	r3, fp, #1392
	sub	r3, r3, #12
	sub	r3, r3, #12
	mov	r0, r3
	bl	_ZNSt7__cxx1112basic_stringIcSt11char_traitsIcESaIcEED1Ev
	cmp	r4, #0
	beq	.L662
	sub	r3, fp, #1200
	sub	r3, r3, #12
	sub	r3, r3, #12
	sub	r2, fp, #3824
	sub	r2, r2, #12
	sub	r2, r2, #12
	ldr	r1, .L941+52
	mov	r0, r3
	bl	_ZStplIcSt11char_traitsIcESaIcEENSt7__cxx1112basic_stringIT_T0_T1_EEPKS5_RKS8_
.LEHE355:
	sub	r3, fp, #1232
	sub	r3, r3, #12
	sub	r3, r3, #4
	sub	r1, fp, #1200
	sub	r1, r1, #12
	sub	r1, r1, #12
	ldr	r2, .L941+48
	mov	r0, r3
.LEHB356:
	bl	_ZStplIcSt11char_traitsIcESaIcEENSt7__cxx1112basic_stringIT_T0_T1_EEOS8_PKS5_
.LEHE356:
	sub	r3, fp, #1184
	sub	r3, r3, #12
	sub	r3, r3, #4
	ldr	r1, [fp, #-44]
	mov	r0, r3
.LEHB357:
	bl	_Z12get_registerB5cxx11j
.LEHE357:
	sub	r3, fp, #1248
	sub	r3, r3, #12
	sub	r3, r3, #12
	sub	r2, fp, #1184
	sub	r2, r2, #12
	sub	r2, r2, #4
	sub	r1, fp, #1232
	sub	r1, r1, #12
	sub	r1, r1, #4
	mov	r0, r3
.LEHB358:
	bl	_ZStplIcSt11char_traitsIcESaIcEENSt7__cxx1112basic_stringIT_T0_T1_EEOS8_S9_
.LEHE358:
	sub	r3, fp, #1280
	sub	r3, r3, #12
	sub	r3, r3, #4
	sub	r2, fp, #3856
	sub	r2, r2, #12
	sub	r2, r2, #4
	sub	r1, fp, #1248
	sub	r1, r1, #12
	sub	r1, r1, #12
	mov	r0, r3
.LEHB359:
	bl	_ZStplIcSt11char_traitsIcESaIcEENSt7__cxx1112basic_stringIT_T0_T1_EEOS8_RKS8_
.LEHE359:
	sub	r3, fp, #1296
	sub	r3, r3, #12
	sub	r3, r3, #12
	sub	r1, fp, #1280
	sub	r1, r1, #12
	sub	r1, r1, #4
	ldr	r2, .L941+60
	mov	r0, r3
.LEHB360:
	bl	_ZStplIcSt11char_traitsIcESaIcEENSt7__cxx1112basic_stringIT_T0_T1_EEOS8_PKS5_
.LEHE360:
	sub	r3, fp, #1328
	sub	r3, r3, #12
	sub	r3, r3, #4
	sub	r2, fp, #3904
	sub	r2, r2, #12
	sub	r2, r2, #4
	sub	r1, fp, #1296
	sub	r1, r1, #12
	sub	r1, r1, #12
	mov	r0, r3
.LEHB361:
	bl	_ZStplIcSt11char_traitsIcESaIcEENSt7__cxx1112basic_stringIT_T0_T1_EEOS8_RKS8_
.LEHE361:
	sub	r3, fp, #1344
	sub	r3, r3, #12
	sub	r3, r3, #12
	sub	r1, fp, #1328
	sub	r1, r1, #12
	sub	r1, r1, #4
	ldr	r2, .L941+64
	mov	r0, r3
.LEHB362:
	bl	_ZStplIcSt11char_traitsIcESaIcEENSt7__cxx1112basic_stringIT_T0_T1_EEOS8_PKS5_
.LEHE362:
	sub	r3, fp, #1376
	sub	r3, r3, #12
	sub	r3, r3, #4
	sub	r2, fp, #3872
	sub	r2, r2, #12
	sub	r2, r2, #12
	sub	r1, fp, #1344
	sub	r1, r1, #12
	sub	r1, r1, #12
	mov	r0, r3
.LEHB363:
	bl	_ZStplIcSt11char_traitsIcESaIcEENSt7__cxx1112basic_stringIT_T0_T1_EEOS8_RKS8_
.LEHE363:
	sub	r3, fp, #1376
	sub	r3, r3, #12
	sub	r3, r3, #4
	mov	r1, r3
	ldr	r0, [fp, #-3928]
	bl	_ZNSt7__cxx1112basic_stringIcSt11char_traitsIcESaIcEEaSEOS4_
	sub	r3, fp, #1376
	sub	r3, r3, #12
	sub	r3, r3, #4
	mov	r0, r3
	bl	_ZNSt7__cxx1112basic_stringIcSt11char_traitsIcESaIcEED1Ev
	sub	r3, fp, #1344
	sub	r3, r3, #12
	sub	r3, r3, #12
	mov	r0, r3
	bl	_ZNSt7__cxx1112basic_stringIcSt11char_traitsIcESaIcEED1Ev
	sub	r3, fp, #1328
	sub	r3, r3, #12
	sub	r3, r3, #4
	mov	r0, r3
	bl	_ZNSt7__cxx1112basic_stringIcSt11char_traitsIcESaIcEED1Ev
	sub	r3, fp, #1296
	sub	r3, r3, #12
	sub	r3, r3, #12
	mov	r0, r3
	bl	_ZNSt7__cxx1112basic_stringIcSt11char_traitsIcESaIcEED1Ev
	sub	r3, fp, #1280
	sub	r3, r3, #12
	sub	r3, r3, #4
	mov	r0, r3
	bl	_ZNSt7__cxx1112basic_stringIcSt11char_traitsIcESaIcEED1Ev
	sub	r3, fp, #1248
	sub	r3, r3, #12
	sub	r3, r3, #12
	mov	r0, r3
	bl	_ZNSt7__cxx1112basic_stringIcSt11char_traitsIcESaIcEED1Ev
	sub	r3, fp, #1184
	sub	r3, r3, #12
	sub	r3, r3, #4
	mov	r0, r3
	bl	_ZNSt7__cxx1112basic_stringIcSt11char_traitsIcESaIcEED1Ev
	sub	r3, fp, #1232
	sub	r3, r3, #12
	sub	r3, r3, #4
	mov	r0, r3
	bl	_ZNSt7__cxx1112basic_stringIcSt11char_traitsIcESaIcEED1Ev
	sub	r3, fp, #1200
	sub	r3, r3, #12
	sub	r3, r3, #12
	mov	r0, r3
	bl	_ZNSt7__cxx1112basic_stringIcSt11char_traitsIcESaIcEED1Ev
	b	.L940
.L662:
	sub	r0, fp, #1008
	sub	r3, fp, #3824
	sub	r3, r3, #12
	sub	r3, r3, #12
	mov	r2, r3
	ldr	r1, .L941+52
.LEHB364:
	bl	_ZStplIcSt11char_traitsIcESaIcEENSt7__cxx1112basic_stringIT_T0_T1_EEPKS5_RKS8_
.LEHE364:
	sub	r3, fp, #1024
	sub	r3, r3, #8
	sub	r1, fp, #1008
	ldr	r2, .L941+56
	mov	r0, r3
.LEHB365:
	bl	_ZStplIcSt11char_traitsIcESaIcEENSt7__cxx1112basic_stringIT_T0_T1_EEOS8_PKS5_
.LEHE365:
	sub	r3, fp, #984
	ldr	r1, [fp, #-44]
	mov	r0, r3
.LEHB366:
	bl	_Z12get_registerB5cxx11j
.LEHE366:
	sub	r3, fp, #1040
	sub	r3, r3, #12
	sub	r3, r3, #4
	sub	r2, fp, #984
	sub	r1, fp, #1024
	sub	r1, r1, #8
	mov	r0, r3
.LEHB367:
	bl	_ZStplIcSt11char_traitsIcESaIcEENSt7__cxx1112basic_stringIT_T0_T1_EEOS8_S9_
.LEHE367:
	sub	r3, fp, #1056
	sub	r3, r3, #12
	sub	r3, r3, #12
	sub	r2, fp, #3856
	sub	r2, r2, #12
	sub	r2, r2, #4
	sub	r1, fp, #1040
	sub	r1, r1, #12
	sub	r1, r1, #4
	mov	r0, r3
.LEHB368:
	bl	_ZStplIcSt11char_traitsIcESaIcEENSt7__cxx1112basic_stringIT_T0_T1_EEOS8_RKS8_
.LEHE368:
	sub	r3, fp, #1088
	sub	r3, r3, #12
	sub	r3, r3, #4
	sub	r1, fp, #1056
	sub	r1, r1, #12
	sub	r1, r1, #12
	ldr	r2, .L941+60
	mov	r0, r3
.LEHB369:
	bl	_ZStplIcSt11char_traitsIcESaIcEENSt7__cxx1112basic_stringIT_T0_T1_EEOS8_PKS5_
.LEHE369:
	sub	r3, fp, #1104
	sub	r3, r3, #12
	sub	r3, r3, #12
	sub	r2, fp, #3904
	sub	r2, r2, #12
	sub	r2, r2, #4
	sub	r1, fp, #1088
	sub	r1, r1, #12
	sub	r1, r1, #4
	mov	r0, r3
.LEHB370:
	bl	_ZStplIcSt11char_traitsIcESaIcEENSt7__cxx1112basic_stringIT_T0_T1_EEOS8_RKS8_
.LEHE370:
	sub	r3, fp, #1136
	sub	r3, r3, #12
	sub	r3, r3, #4
	sub	r1, fp, #1104
	sub	r1, r1, #12
	sub	r1, r1, #12
	ldr	r2, .L941+64
	mov	r0, r3
.LEHB371:
	bl	_ZStplIcSt11char_traitsIcESaIcEENSt7__cxx1112basic_stringIT_T0_T1_EEOS8_PKS5_
.LEHE371:
	sub	r3, fp, #1152
	sub	r3, r3, #12
	sub	r3, r3, #12
	sub	r2, fp, #3872
	sub	r2, r2, #12
	sub	r2, r2, #12
	sub	r1, fp, #1136
	sub	r1, r1, #12
	sub	r1, r1, #4
	mov	r0, r3
.LEHB372:
	bl	_ZStplIcSt11char_traitsIcESaIcEENSt7__cxx1112basic_stringIT_T0_T1_EEOS8_RKS8_
.LEHE372:
	sub	r3, fp, #1152
	sub	r3, r3, #12
	sub	r3, r3, #12
	mov	r1, r3
	ldr	r0, [fp, #-3928]
	bl	_ZNSt7__cxx1112basic_stringIcSt11char_traitsIcESaIcEEaSEOS4_
	sub	r3, fp, #1152
	sub	r3, r3, #12
	sub	r3, r3, #12
	mov	r0, r3
	bl	_ZNSt7__cxx1112basic_stringIcSt11char_traitsIcESaIcEED1Ev
	sub	r3, fp, #1136
	sub	r3, r3, #12
	sub	r3, r3, #4
	mov	r0, r3
	bl	_ZNSt7__cxx1112basic_stringIcSt11char_traitsIcESaIcEED1Ev
	sub	r3, fp, #1104
	sub	r3, r3, #12
	sub	r3, r3, #12
	mov	r0, r3
	bl	_ZNSt7__cxx1112basic_stringIcSt11char_traitsIcESaIcEED1Ev
	sub	r3, fp, #1088
	sub	r3, r3, #12
	sub	r3, r3, #4
	mov	r0, r3
	bl	_ZNSt7__cxx1112basic_stringIcSt11char_traitsIcESaIcEED1Ev
	sub	r3, fp, #1056
	sub	r3, r3, #12
	sub	r3, r3, #12
	mov	r0, r3
	bl	_ZNSt7__cxx1112basic_stringIcSt11char_traitsIcESaIcEED1Ev
	sub	r3, fp, #1040
	sub	r3, r3, #12
	sub	r3, r3, #4
	mov	r0, r3
	bl	_ZNSt7__cxx1112basic_stringIcSt11char_traitsIcESaIcEED1Ev
	sub	r3, fp, #984
	mov	r0, r3
	bl	_ZNSt7__cxx1112basic_stringIcSt11char_traitsIcESaIcEED1Ev
	sub	r3, fp, #1024
	sub	r3, r3, #8
	mov	r0, r3
	bl	_ZNSt7__cxx1112basic_stringIcSt11char_traitsIcESaIcEED1Ev
	sub	r3, fp, #1008
	mov	r0, r3
	bl	_ZNSt7__cxx1112basic_stringIcSt11char_traitsIcESaIcEED1Ev
	b	.L940
.L657:
	ldr	r3, [fp, #-28]
	cmp	r3, #1
	bne	.L663
	sub	r3, fp, #960
	ldr	r1, [fp, #-44]
	mov	r0, r3
.LEHB373:
	bl	_Z12get_registerB5cxx11j
	sub	r3, fp, #960
	ldr	r1, .L943
	mov	r0, r3
	bl	_ZSteqIcSt11char_traitsIcESaIcEEbRKNSt7__cxx1112basic_stringIT_T0_T1_EEPKS5_
	mov	r3, r0
	mov	r4, r3
	sub	r3, fp, #960
	mov	r0, r3
	bl	_ZNSt7__cxx1112basic_stringIcSt11char_traitsIcESaIcEED1Ev
	cmp	r4, #0
	beq	.L664
	sub	r0, fp, #768
	sub	r3, fp, #3824
	sub	r3, r3, #12
	sub	r3, r3, #12
	mov	r2, r3
	ldr	r1, .L943+4
	bl	_ZStplIcSt11char_traitsIcESaIcEENSt7__cxx1112basic_stringIT_T0_T1_EEPKS5_RKS8_
.LEHE373:
	sub	r3, fp, #792
	sub	r1, fp, #768
	ldr	r2, .L943+8
	mov	r0, r3
.LEHB374:
	bl	_ZStplIcSt11char_traitsIcESaIcEENSt7__cxx1112basic_stringIT_T0_T1_EEOS8_PKS5_
.LEHE374:
	sub	r3, fp, #744
	ldr	r1, [fp, #-44]
	mov	r0, r3
.LEHB375:
	bl	_Z12get_registerB5cxx11j
.LEHE375:
	sub	r3, fp, #816
	sub	r2, fp, #744
	sub	r1, fp, #792
	mov	r0, r3
.LEHB376:
	bl	_ZStplIcSt11char_traitsIcESaIcEENSt7__cxx1112basic_stringIT_T0_T1_EEOS8_S9_
.LEHE376:
	sub	r0, fp, #840
	sub	r3, fp, #3856
	sub	r3, r3, #12
	sub	r3, r3, #4
	sub	r1, fp, #816
	mov	r2, r3
.LEHB377:
	bl	_ZStplIcSt11char_traitsIcESaIcEENSt7__cxx1112basic_stringIT_T0_T1_EEOS8_RKS8_
.LEHE377:
	sub	r3, fp, #864
	sub	r1, fp, #840
	ldr	r2, .L943+12
	mov	r0, r3
.LEHB378:
	bl	_ZStplIcSt11char_traitsIcESaIcEENSt7__cxx1112basic_stringIT_T0_T1_EEOS8_PKS5_
.LEHE378:
	sub	r0, fp, #888
	sub	r3, fp, #3904
	sub	r3, r3, #12
	sub	r3, r3, #4
	sub	r1, fp, #864
	mov	r2, r3
.LEHB379:
	bl	_ZStplIcSt11char_traitsIcESaIcEENSt7__cxx1112basic_stringIT_T0_T1_EEOS8_RKS8_
.LEHE379:
	sub	r3, fp, #912
	sub	r1, fp, #888
	ldr	r2, .L943+16
	mov	r0, r3
.LEHB380:
	bl	_ZStplIcSt11char_traitsIcESaIcEENSt7__cxx1112basic_stringIT_T0_T1_EEOS8_PKS5_
.LEHE380:
	sub	r0, fp, #936
	sub	r3, fp, #3872
	sub	r3, r3, #12
	sub	r3, r3, #12
	sub	r1, fp, #912
	mov	r2, r3
.LEHB381:
	bl	_ZStplIcSt11char_traitsIcESaIcEENSt7__cxx1112basic_stringIT_T0_T1_EEOS8_RKS8_
.LEHE381:
	sub	r3, fp, #936
	mov	r1, r3
	ldr	r0, [fp, #-3928]
	bl	_ZNSt7__cxx1112basic_stringIcSt11char_traitsIcESaIcEEaSEOS4_
	sub	r3, fp, #936
	mov	r0, r3
	bl	_ZNSt7__cxx1112basic_stringIcSt11char_traitsIcESaIcEED1Ev
	sub	r3, fp, #912
	mov	r0, r3
	bl	_ZNSt7__cxx1112basic_stringIcSt11char_traitsIcESaIcEED1Ev
	sub	r3, fp, #888
	mov	r0, r3
	bl	_ZNSt7__cxx1112basic_stringIcSt11char_traitsIcESaIcEED1Ev
	sub	r3, fp, #864
	mov	r0, r3
	bl	_ZNSt7__cxx1112basic_stringIcSt11char_traitsIcESaIcEED1Ev
	sub	r3, fp, #840
	mov	r0, r3
	bl	_ZNSt7__cxx1112basic_stringIcSt11char_traitsIcESaIcEED1Ev
	sub	r3, fp, #816
	mov	r0, r3
	bl	_ZNSt7__cxx1112basic_stringIcSt11char_traitsIcESaIcEED1Ev
	sub	r3, fp, #744
	mov	r0, r3
	bl	_ZNSt7__cxx1112basic_stringIcSt11char_traitsIcESaIcEED1Ev
	sub	r3, fp, #792
	mov	r0, r3
	bl	_ZNSt7__cxx1112basic_stringIcSt11char_traitsIcESaIcEED1Ev
	sub	r3, fp, #768
	mov	r0, r3
	bl	_ZNSt7__cxx1112basic_stringIcSt11char_traitsIcESaIcEED1Ev
	b	.L940
.L664:
	sub	r0, fp, #552
	sub	r3, fp, #3824
	sub	r3, r3, #12
	sub	r3, r3, #12
	mov	r2, r3
	ldr	r1, .L943+4
.LEHB382:
	bl	_ZStplIcSt11char_traitsIcESaIcEENSt7__cxx1112basic_stringIT_T0_T1_EEPKS5_RKS8_
.LEHE382:
	sub	r3, fp, #576
	sub	r1, fp, #552
	ldr	r2, .L943+20
	mov	r0, r3
.LEHB383:
	bl	_ZStplIcSt11char_traitsIcESaIcEENSt7__cxx1112basic_stringIT_T0_T1_EEOS8_PKS5_
.LEHE383:
	sub	r3, fp, #528
	ldr	r1, [fp, #-44]
	mov	r0, r3
.LEHB384:
	bl	_Z12get_registerB5cxx11j
.LEHE384:
	sub	r3, fp, #600
	sub	r2, fp, #528
	sub	r1, fp, #576
	mov	r0, r3
.LEHB385:
	bl	_ZStplIcSt11char_traitsIcESaIcEENSt7__cxx1112basic_stringIT_T0_T1_EEOS8_S9_
.LEHE385:
	sub	r0, fp, #624
	sub	r3, fp, #3856
	sub	r3, r3, #12
	sub	r3, r3, #4
	sub	r1, fp, #600
	mov	r2, r3
.LEHB386:
	bl	_ZStplIcSt11char_traitsIcESaIcEENSt7__cxx1112basic_stringIT_T0_T1_EEOS8_RKS8_
.LEHE386:
	sub	r3, fp, #648
	sub	r1, fp, #624
	ldr	r2, .L943+12
	mov	r0, r3
.LEHB387:
	bl	_ZStplIcSt11char_traitsIcESaIcEENSt7__cxx1112basic_stringIT_T0_T1_EEOS8_PKS5_
.LEHE387:
	sub	r0, fp, #672
	sub	r3, fp, #3904
	sub	r3, r3, #12
	sub	r3, r3, #4
	sub	r1, fp, #648
	mov	r2, r3
.LEHB388:
	bl	_ZStplIcSt11char_traitsIcESaIcEENSt7__cxx1112basic_stringIT_T0_T1_EEOS8_RKS8_
.LEHE388:
	sub	r3, fp, #696
	sub	r1, fp, #672
	ldr	r2, .L943+16
	mov	r0, r3
.LEHB389:
	bl	_ZStplIcSt11char_traitsIcESaIcEENSt7__cxx1112basic_stringIT_T0_T1_EEOS8_PKS5_
.LEHE389:
	sub	r0, fp, #720
	sub	r3, fp, #3872
	sub	r3, r3, #12
	sub	r3, r3, #12
	sub	r1, fp, #696
	mov	r2, r3
.LEHB390:
	bl	_ZStplIcSt11char_traitsIcESaIcEENSt7__cxx1112basic_stringIT_T0_T1_EEOS8_RKS8_
.LEHE390:
	sub	r3, fp, #720
	mov	r1, r3
	ldr	r0, [fp, #-3928]
	bl	_ZNSt7__cxx1112basic_stringIcSt11char_traitsIcESaIcEEaSEOS4_
	sub	r3, fp, #720
	mov	r0, r3
	bl	_ZNSt7__cxx1112basic_stringIcSt11char_traitsIcESaIcEED1Ev
	sub	r3, fp, #696
	mov	r0, r3
	bl	_ZNSt7__cxx1112basic_stringIcSt11char_traitsIcESaIcEED1Ev
	sub	r3, fp, #672
	mov	r0, r3
	bl	_ZNSt7__cxx1112basic_stringIcSt11char_traitsIcESaIcEED1Ev
	sub	r3, fp, #648
	mov	r0, r3
	bl	_ZNSt7__cxx1112basic_stringIcSt11char_traitsIcESaIcEED1Ev
	sub	r3, fp, #624
	mov	r0, r3
	bl	_ZNSt7__cxx1112basic_stringIcSt11char_traitsIcESaIcEED1Ev
	sub	r3, fp, #600
	mov	r0, r3
	bl	_ZNSt7__cxx1112basic_stringIcSt11char_traitsIcESaIcEED1Ev
	sub	r3, fp, #528
	mov	r0, r3
	bl	_ZNSt7__cxx1112basic_stringIcSt11char_traitsIcESaIcEED1Ev
	sub	r3, fp, #576
	mov	r0, r3
	bl	_ZNSt7__cxx1112basic_stringIcSt11char_traitsIcESaIcEED1Ev
	sub	r3, fp, #552
	mov	r0, r3
	bl	_ZNSt7__cxx1112basic_stringIcSt11char_traitsIcESaIcEED1Ev
	b	.L940
.L663:
	sub	r3, fp, #504
	ldr	r1, [fp, #-44]
	mov	r0, r3
.LEHB391:
	bl	_Z12get_registerB5cxx11j
	sub	r3, fp, #504
	ldr	r1, .L943
	mov	r0, r3
	bl	_ZSteqIcSt11char_traitsIcESaIcEEbRKNSt7__cxx1112basic_stringIT_T0_T1_EEPKS5_
	mov	r3, r0
	mov	r4, r3
	sub	r3, fp, #504
	mov	r0, r3
	bl	_ZNSt7__cxx1112basic_stringIcSt11char_traitsIcESaIcEED1Ev
	cmp	r4, #0
	beq	.L666
	sub	r0, fp, #312
	sub	r3, fp, #3824
	sub	r3, r3, #12
	sub	r3, r3, #12
	mov	r2, r3
	ldr	r1, .L943+4
	bl	_ZStplIcSt11char_traitsIcESaIcEENSt7__cxx1112basic_stringIT_T0_T1_EEPKS5_RKS8_
.LEHE391:
	sub	r3, fp, #336
	sub	r1, fp, #312
	ldr	r2, .L943+24
	mov	r0, r3
.LEHB392:
	bl	_ZStplIcSt11char_traitsIcESaIcEENSt7__cxx1112basic_stringIT_T0_T1_EEOS8_PKS5_
.LEHE392:
	sub	r3, fp, #288
	ldr	r1, [fp, #-44]
	mov	r0, r3
.LEHB393:
	bl	_Z12get_registerB5cxx11j
.LEHE393:
	sub	r3, fp, #360
	sub	r2, fp, #288
	sub	r1, fp, #336
	mov	r0, r3
.LEHB394:
	bl	_ZStplIcSt11char_traitsIcESaIcEENSt7__cxx1112basic_stringIT_T0_T1_EEOS8_S9_
.LEHE394:
	sub	r0, fp, #384
	sub	r3, fp, #3856
	sub	r3, r3, #12
	sub	r3, r3, #4
	sub	r1, fp, #360
	mov	r2, r3
.LEHB395:
	bl	_ZStplIcSt11char_traitsIcESaIcEENSt7__cxx1112basic_stringIT_T0_T1_EEOS8_RKS8_
.LEHE395:
	sub	r3, fp, #408
	sub	r1, fp, #384
	ldr	r2, .L943+12
	mov	r0, r3
.LEHB396:
	bl	_ZStplIcSt11char_traitsIcESaIcEENSt7__cxx1112basic_stringIT_T0_T1_EEOS8_PKS5_
.LEHE396:
	sub	r0, fp, #432
	sub	r3, fp, #3904
	sub	r3, r3, #12
	sub	r3, r3, #4
	sub	r1, fp, #408
	mov	r2, r3
.LEHB397:
	bl	_ZStplIcSt11char_traitsIcESaIcEENSt7__cxx1112basic_stringIT_T0_T1_EEOS8_RKS8_
.LEHE397:
	sub	r3, fp, #456
	sub	r1, fp, #432
	ldr	r2, .L943+16
	mov	r0, r3
.LEHB398:
	bl	_ZStplIcSt11char_traitsIcESaIcEENSt7__cxx1112basic_stringIT_T0_T1_EEOS8_PKS5_
.LEHE398:
	sub	r0, fp, #480
	sub	r3, fp, #3872
	sub	r3, r3, #12
	sub	r3, r3, #12
	sub	r1, fp, #456
	mov	r2, r3
.LEHB399:
	bl	_ZStplIcSt11char_traitsIcESaIcEENSt7__cxx1112basic_stringIT_T0_T1_EEOS8_RKS8_
.LEHE399:
	sub	r3, fp, #480
	mov	r1, r3
	ldr	r0, [fp, #-3928]
	bl	_ZNSt7__cxx1112basic_stringIcSt11char_traitsIcESaIcEEaSEOS4_
	sub	r3, fp, #480
	mov	r0, r3
	bl	_ZNSt7__cxx1112basic_stringIcSt11char_traitsIcESaIcEED1Ev
	sub	r3, fp, #456
	mov	r0, r3
	bl	_ZNSt7__cxx1112basic_stringIcSt11char_traitsIcESaIcEED1Ev
	sub	r3, fp, #432
	mov	r0, r3
	bl	_ZNSt7__cxx1112basic_stringIcSt11char_traitsIcESaIcEED1Ev
	sub	r3, fp, #408
	mov	r0, r3
	bl	_ZNSt7__cxx1112basic_stringIcSt11char_traitsIcESaIcEED1Ev
	sub	r3, fp, #384
	mov	r0, r3
	bl	_ZNSt7__cxx1112basic_stringIcSt11char_traitsIcESaIcEED1Ev
	sub	r3, fp, #360
	mov	r0, r3
	bl	_ZNSt7__cxx1112basic_stringIcSt11char_traitsIcESaIcEED1Ev
	sub	r3, fp, #288
	mov	r0, r3
	bl	_ZNSt7__cxx1112basic_stringIcSt11char_traitsIcESaIcEED1Ev
	sub	r3, fp, #336
	mov	r0, r3
	bl	_ZNSt7__cxx1112basic_stringIcSt11char_traitsIcESaIcEED1Ev
	sub	r3, fp, #312
	mov	r0, r3
	bl	_ZNSt7__cxx1112basic_stringIcSt11char_traitsIcESaIcEED1Ev
	b	.L940
.L666:
	sub	r0, fp, #96
	sub	r3, fp, #3824
	sub	r3, r3, #12
	sub	r3, r3, #12
	mov	r2, r3
	ldr	r1, .L943+4
.LEHB400:
	bl	_ZStplIcSt11char_traitsIcESaIcEENSt7__cxx1112basic_stringIT_T0_T1_EEPKS5_RKS8_
.LEHE400:
	sub	r3, fp, #120
	sub	r1, fp, #96
	ldr	r2, .L943+28
	mov	r0, r3
.LEHB401:
	bl	_ZStplIcSt11char_traitsIcESaIcEENSt7__cxx1112basic_stringIT_T0_T1_EEOS8_PKS5_
.LEHE401:
	sub	r3, fp, #72
	ldr	r1, [fp, #-44]
	mov	r0, r3
.LEHB402:
	bl	_Z12get_registerB5cxx11j
.LEHE402:
	sub	r3, fp, #144
	sub	r2, fp, #72
	sub	r1, fp, #120
	mov	r0, r3
.LEHB403:
	bl	_ZStplIcSt11char_traitsIcESaIcEENSt7__cxx1112basic_stringIT_T0_T1_EEOS8_S9_
.LEHE403:
	sub	r0, fp, #168
	sub	r3, fp, #3856
	sub	r3, r3, #12
	sub	r3, r3, #4
	sub	r1, fp, #144
	mov	r2, r3
.LEHB404:
	bl	_ZStplIcSt11char_traitsIcESaIcEENSt7__cxx1112basic_stringIT_T0_T1_EEOS8_RKS8_
.LEHE404:
	sub	r3, fp, #192
	sub	r1, fp, #168
	ldr	r2, .L943+12
	mov	r0, r3
.LEHB405:
	bl	_ZStplIcSt11char_traitsIcESaIcEENSt7__cxx1112basic_stringIT_T0_T1_EEOS8_PKS5_
.LEHE405:
	sub	r0, fp, #216
	sub	r3, fp, #3904
	sub	r3, r3, #12
	sub	r3, r3, #4
	sub	r1, fp, #192
	mov	r2, r3
.LEHB406:
	bl	_ZStplIcSt11char_traitsIcESaIcEENSt7__cxx1112basic_stringIT_T0_T1_EEOS8_RKS8_
.LEHE406:
	sub	r3, fp, #240
	sub	r1, fp, #216
	ldr	r2, .L943+16
	mov	r0, r3
.LEHB407:
	bl	_ZStplIcSt11char_traitsIcESaIcEENSt7__cxx1112basic_stringIT_T0_T1_EEOS8_PKS5_
.LEHE407:
	sub	r0, fp, #264
	sub	r3, fp, #3872
	sub	r3, r3, #12
	sub	r3, r3, #12
	sub	r1, fp, #240
	mov	r2, r3
.LEHB408:
	bl	_ZStplIcSt11char_traitsIcESaIcEENSt7__cxx1112basic_stringIT_T0_T1_EEOS8_RKS8_
.LEHE408:
	sub	r3, fp, #264
	mov	r1, r3
	ldr	r0, [fp, #-3928]
	bl	_ZNSt7__cxx1112basic_stringIcSt11char_traitsIcESaIcEEaSEOS4_
	sub	r3, fp, #264
	mov	r0, r3
	bl	_ZNSt7__cxx1112basic_stringIcSt11char_traitsIcESaIcEED1Ev
	sub	r3, fp, #240
	mov	r0, r3
	bl	_ZNSt7__cxx1112basic_stringIcSt11char_traitsIcESaIcEED1Ev
	sub	r3, fp, #216
	mov	r0, r3
	bl	_ZNSt7__cxx1112basic_stringIcSt11char_traitsIcESaIcEED1Ev
	sub	r3, fp, #192
	mov	r0, r3
	bl	_ZNSt7__cxx1112basic_stringIcSt11char_traitsIcESaIcEED1Ev
	sub	r3, fp, #168
	mov	r0, r3
	bl	_ZNSt7__cxx1112basic_stringIcSt11char_traitsIcESaIcEED1Ev
	sub	r3, fp, #144
	mov	r0, r3
	bl	_ZNSt7__cxx1112basic_stringIcSt11char_traitsIcESaIcEED1Ev
	sub	r3, fp, #72
	mov	r0, r3
	bl	_ZNSt7__cxx1112basic_stringIcSt11char_traitsIcESaIcEED1Ev
	sub	r3, fp, #120
	mov	r0, r3
	bl	_ZNSt7__cxx1112basic_stringIcSt11char_traitsIcESaIcEED1Ev
	sub	r3, fp, #96
	mov	r0, r3
	bl	_ZNSt7__cxx1112basic_stringIcSt11char_traitsIcESaIcEED1Ev
.L940:
	nop
	sub	r3, fp, #3904
	sub	r3, r3, #12
	sub	r3, r3, #4
	mov	r0, r3
	bl	_ZNSt7__cxx1112basic_stringIcSt11char_traitsIcESaIcEED1Ev
	sub	r3, fp, #3872
	sub	r3, r3, #12
	sub	r3, r3, #12
	mov	r0, r3
	bl	_ZNSt7__cxx1112basic_stringIcSt11char_traitsIcESaIcEED1Ev
	sub	r3, fp, #3856
	sub	r3, r3, #12
	sub	r3, r3, #4
	mov	r0, r3
	bl	_ZNSt7__cxx1112basic_stringIcSt11char_traitsIcESaIcEED1Ev
	sub	r3, fp, #3824
	sub	r3, r3, #12
	sub	r3, r3, #12
	mov	r0, r3
	bl	_ZNSt7__cxx1112basic_stringIcSt11char_traitsIcESaIcEED1Ev
	b	.L939
.L804:
	sub	r3, fp, #3808
	sub	r3, r3, #12
	sub	r3, r3, #4
	mov	r0, r3
	bl	_ZNSaIcED1Ev
	b	.L669
.L805:
	sub	r3, fp, #3808
	sub	r3, r3, #12
	mov	r0, r3
	bl	_ZNSaIcED1Ev
	b	.L671
.L807:
	sub	r3, fp, #3776
	sub	r3, r3, #12
	sub	r3, r3, #4
	mov	r0, r3
	bl	_ZNSt7__cxx1112basic_stringIcSt11char_traitsIcESaIcEED1Ev
	b	.L673
.L809:
	sub	r3, fp, #3696
	sub	r3, r3, #12
	sub	r3, r3, #12
	mov	r0, r3
	bl	_ZNSt7__cxx1112basic_stringIcSt11char_traitsIcESaIcEED1Ev
	b	.L675
.L808:
.L675:
	sub	r3, fp, #3728
	sub	r3, r3, #12
	sub	r3, r3, #4
	mov	r0, r3
	bl	_ZNSt7__cxx1112basic_stringIcSt11char_traitsIcESaIcEED1Ev
	b	.L673
.L817:
	sub	r3, fp, #3632
	sub	r3, r3, #12
	sub	r3, r3, #4
	mov	r0, r3
	bl	_ZNSt7__cxx1112basic_stringIcSt11char_traitsIcESaIcEED1Ev
	b	.L677
.L816:
.L677:
	sub	r3, fp, #3600
	sub	r3, r3, #12
	sub	r3, r3, #12
	mov	r0, r3
	bl	_ZNSt7__cxx1112basic_stringIcSt11char_traitsIcESaIcEED1Ev
	b	.L678
.L815:
.L678:
	sub	r3, fp, #3584
	sub	r3, r3, #12
	sub	r3, r3, #4
	mov	r0, r3
	bl	_ZNSt7__cxx1112basic_stringIcSt11char_traitsIcESaIcEED1Ev
	b	.L679
.L814:
.L679:
	sub	r3, fp, #3552
	sub	r3, r3, #12
	sub	r3, r3, #12
	mov	r0, r3
	bl	_ZNSt7__cxx1112basic_stringIcSt11char_traitsIcESaIcEED1Ev
	b	.L680
.L813:
.L680:
	sub	r3, fp, #3536
	sub	r3, r3, #12
	sub	r3, r3, #4
	mov	r0, r3
	bl	_ZNSt7__cxx1112basic_stringIcSt11char_traitsIcESaIcEED1Ev
	b	.L681
.L812:
.L681:
	sub	r3, fp, #3456
	sub	r3, r3, #12
	sub	r3, r3, #12
	mov	r0, r3
	bl	_ZNSt7__cxx1112basic_stringIcSt11char_traitsIcESaIcEED1Ev
	b	.L682
.L811:
.L682:
	sub	r3, fp, #3504
	sub	r3, r3, #12
	sub	r3, r3, #12
	mov	r0, r3
	bl	_ZNSt7__cxx1112basic_stringIcSt11char_traitsIcESaIcEED1Ev
	b	.L683
.L810:
.L683:
	sub	r3, fp, #3488
	sub	r3, r3, #12
	sub	r3, r3, #4
	mov	r0, r3
	bl	_ZNSt7__cxx1112basic_stringIcSt11char_traitsIcESaIcEED1Ev
	b	.L673
.L825:
	sub	r3, fp, #3408
	sub	r3, r3, #12
	sub	r3, r3, #12
	mov	r0, r3
	bl	_ZNSt7__cxx1112basic_stringIcSt11char_traitsIcESaIcEED1Ev
	b	.L685
.L824:
.L685:
	sub	r3, fp, #3392
	sub	r3, r3, #12
	sub	r3, r3, #4
	mov	r0, r3
	bl	_ZNSt7__cxx1112basic_stringIcSt11char_traitsIcESaIcEED1Ev
	b	.L686
.L823:
.L686:
	sub	r3, fp, #3360
	sub	r3, r3, #12
	sub	r3, r3, #12
	mov	r0, r3
	bl	_ZNSt7__cxx1112basic_stringIcSt11char_traitsIcESaIcEED1Ev
	b	.L687
.L822:
.L687:
	sub	r3, fp, #3344
	sub	r3, r3, #12
	sub	r3, r3, #4
	mov	r0, r3
	bl	_ZNSt7__cxx1112basic_stringIcSt11char_traitsIcESaIcEED1Ev
	b	.L688
.L821:
.L688:
	sub	r3, fp, #3312
	sub	r3, r3, #12
	sub	r3, r3, #12
	mov	r0, r3
	bl	_ZNSt7__cxx1112basic_stringIcSt11char_traitsIcESaIcEED1Ev
	b	.L689
.L820:
.L689:
	sub	r3, fp, #3248
	sub	r3, r3, #12
	sub	r3, r3, #4
	mov	r0, r3
	bl	_ZNSt7__cxx1112basic_stringIcSt11char_traitsIcESaIcEED1Ev
	b	.L690
.L819:
.L690:
	sub	r3, fp, #3296
	sub	r3, r3, #12
	sub	r3, r3, #4
	mov	r0, r3
	bl	_ZNSt7__cxx1112basic_stringIcSt11char_traitsIcESaIcEED1Ev
	b	.L691
.L818:
.L691:
	sub	r3, fp, #3264
	sub	r3, r3, #12
	sub	r3, r3, #12
	mov	r0, r3
	bl	_ZNSt7__cxx1112basic_stringIcSt11char_traitsIcESaIcEED1Ev
	b	.L673
.L833:
	sub	r3, fp, #3168
	sub	r3, r3, #12
	sub	r3, r3, #12
	mov	r0, r3
	bl	_ZNSt7__cxx1112basic_stringIcSt11char_traitsIcESaIcEED1Ev
	b	.L693
.L832:
.L693:
	sub	r3, fp, #3152
	sub	r3, r3, #12
	sub	r3, r3, #4
	mov	r0, r3
	bl	_ZNSt7__cxx1112basic_stringIcSt11char_traitsIcESaIcEED1Ev
	b	.L694
.L831:
.L694:
	sub	r3, fp, #3120
	sub	r3, r3, #12
	sub	r3, r3, #12
	mov	r0, r3
	bl	_ZNSt7__cxx1112basic_stringIcSt11char_traitsIcESaIcEED1Ev
	b	.L695
.L830:
.L695:
	sub	r3, fp, #3104
	sub	r3, r3, #12
	sub	r3, r3, #4
	mov	r0, r3
	bl	_ZNSt7__cxx1112basic_stringIcSt11char_traitsIcESaIcEED1Ev
	b	.L696
.L829:
.L696:
	sub	r3, fp, #3072
	sub	r3, r3, #12
	sub	r3, r3, #12
	mov	r0, r3
	bl	_ZNSt7__cxx1112basic_stringIcSt11char_traitsIcESaIcEED1Ev
	b	.L697
.L828:
.L697:
	sub	r3, fp, #3008
	sub	r3, r3, #12
	sub	r3, r3, #4
	mov	r0, r3
	bl	_ZNSt7__cxx1112basic_stringIcSt11char_traitsIcESaIcEED1Ev
	b	.L698
.L827:
.L698:
	sub	r3, fp, #3056
	sub	r3, r3, #12
	sub	r3, r3, #4
	mov	r0, r3
	bl	_ZNSt7__cxx1112basic_stringIcSt11char_traitsIcESaIcEED1Ev
	b	.L699
.L826:
.L699:
	sub	r3, fp, #3024
	sub	r3, r3, #12
	sub	r3, r3, #12
	mov	r0, r3
	bl	_ZNSt7__cxx1112basic_stringIcSt11char_traitsIcESaIcEED1Ev
	b	.L673
.L841:
	sub	r3, fp, #2960
	sub	r3, r3, #12
	sub	r3, r3, #4
	mov	r0, r3
	bl	_ZNSt7__cxx1112basic_stringIcSt11char_traitsIcESaIcEED1Ev
	b	.L701
.L840:
.L701:
	sub	r3, fp, #2928
	sub	r3, r3, #12
	sub	r3, r3, #12
	mov	r0, r3
	bl	_ZNSt7__cxx1112basic_stringIcSt11char_traitsIcESaIcEED1Ev
	b	.L702
.L839:
.L702:
	sub	r3, fp, #2912
	sub	r3, r3, #12
	sub	r3, r3, #4
	mov	r0, r3
	bl	_ZNSt7__cxx1112basic_stringIcSt11char_traitsIcESaIcEED1Ev
	b	.L703
.L838:
.L703:
	sub	r3, fp, #2880
	sub	r3, r3, #12
	sub	r3, r3, #12
	mov	r0, r3
	bl	_ZNSt7__cxx1112basic_stringIcSt11char_traitsIcESaIcEED1Ev
	b	.L704
.L837:
.L704:
	sub	r3, fp, #2864
	sub	r3, r3, #12
	sub	r3, r3, #4
	mov	r0, r3
	bl	_ZNSt7__cxx1112basic_stringIcSt11char_traitsIcESaIcEED1Ev
	b	.L705
.L836:
.L705:
	sub	r3, fp, #2784
	sub	r3, r3, #12
	sub	r3, r3, #12
	mov	r0, r3
	bl	_ZNSt7__cxx1112basic_stringIcSt11char_traitsIcESaIcEED1Ev
	b	.L706
.L835:
.L706:
	sub	r3, fp, #2832
	sub	r3, r3, #12
	sub	r3, r3, #12
	mov	r0, r3
	bl	_ZNSt7__cxx1112basic_stringIcSt11char_traitsIcESaIcEED1Ev
	b	.L707
.L834:
.L707:
	sub	r3, fp, #2816
	sub	r3, r3, #12
	sub	r3, r3, #4
	mov	r0, r3
	bl	_ZNSt7__cxx1112basic_stringIcSt11char_traitsIcESaIcEED1Ev
	b	.L673
.L849:
	sub	r3, fp, #2720
	sub	r3, r3, #12
	sub	r3, r3, #4
	mov	r0, r3
	bl	_ZNSt7__cxx1112basic_stringIcSt11char_traitsIcESaIcEED1Ev
	b	.L709
.L848:
.L709:
	sub	r3, fp, #2688
	sub	r3, r3, #12
	sub	r3, r3, #12
	mov	r0, r3
	bl	_ZNSt7__cxx1112basic_stringIcSt11char_traitsIcESaIcEED1Ev
	b	.L710
.L847:
.L710:
	sub	r3, fp, #2672
	sub	r3, r3, #12
	sub	r3, r3, #4
	mov	r0, r3
	bl	_ZNSt7__cxx1112basic_stringIcSt11char_traitsIcESaIcEED1Ev
	b	.L711
.L846:
.L711:
	sub	r3, fp, #2640
	sub	r3, r3, #12
	sub	r3, r3, #12
	mov	r0, r3
	bl	_ZNSt7__cxx1112basic_stringIcSt11char_traitsIcESaIcEED1Ev
	b	.L712
.L845:
.L712:
	sub	r3, fp, #2624
	sub	r3, r3, #12
	sub	r3, r3, #4
	mov	r0, r3
	bl	_ZNSt7__cxx1112basic_stringIcSt11char_traitsIcESaIcEED1Ev
	b	.L713
.L844:
.L713:
	sub	r3, fp, #2544
	sub	r3, r3, #12
	sub	r3, r3, #12
	mov	r0, r3
	bl	_ZNSt7__cxx1112basic_stringIcSt11char_traitsIcESaIcEED1Ev
	b	.L714
.L843:
.L714:
	sub	r3, fp, #2592
	sub	r3, r3, #12
	sub	r3, r3, #12
	mov	r0, r3
	bl	_ZNSt7__cxx1112basic_stringIcSt11char_traitsIcESaIcEED1Ev
	b	.L715
.L842:
.L715:
	sub	r3, fp, #2576
	sub	r3, r3, #12
	sub	r3, r3, #4
	mov	r0, r3
	bl	_ZNSt7__cxx1112basic_stringIcSt11char_traitsIcESaIcEED1Ev
	b	.L673
.L857:
	sub	r3, fp, #2496
	sub	r3, r3, #12
	sub	r3, r3, #12
	mov	r0, r3
	bl	_ZNSt7__cxx1112basic_stringIcSt11char_traitsIcESaIcEED1Ev
	b	.L717
.L856:
.L717:
	sub	r3, fp, #2480
	sub	r3, r3, #12
	sub	r3, r3, #4
	mov	r0, r3
	bl	_ZNSt7__cxx1112basic_stringIcSt11char_traitsIcESaIcEED1Ev
	b	.L718
.L855:
.L718:
	sub	r3, fp, #2448
	sub	r3, r3, #12
	sub	r3, r3, #12
	mov	r0, r3
	bl	_ZNSt7__cxx1112basic_stringIcSt11char_traitsIcESaIcEED1Ev
	b	.L719
.L854:
.L719:
	sub	r3, fp, #2432
	sub	r3, r3, #12
	sub	r3, r3, #4
	mov	r0, r3
	bl	_ZNSt7__cxx1112basic_stringIcSt11char_traitsIcESaIcEED1Ev
	b	.L720
.L853:
.L720:
	sub	r3, fp, #2400
	sub	r3, r3, #12
	sub	r3, r3, #12
	mov	r0, r3
	bl	_ZNSt7__cxx1112basic_stringIcSt11char_traitsIcESaIcEED1Ev
	b	.L721
.L852:
.L721:
	sub	r3, fp, #2336
	sub	r3, r3, #12
	sub	r3, r3, #4
	mov	r0, r3
	bl	_ZNSt7__cxx1112basic_stringIcSt11char_traitsIcESaIcEED1Ev
	b	.L722
.L851:
.L722:
	sub	r3, fp, #2384
	sub	r3, r3, #12
	sub	r3, r3, #4
	mov	r0, r3
	bl	_ZNSt7__cxx1112basic_stringIcSt11char_traitsIcESaIcEED1Ev
	b	.L723
.L850:
.L723:
	sub	r3, fp, #2352
	sub	r3, r3, #12
	sub	r3, r3, #12
	mov	r0, r3
	bl	_ZNSt7__cxx1112basic_stringIcSt11char_traitsIcESaIcEED1Ev
	b	.L673
.L865:
	sub	r3, fp, #2256
	sub	r3, r3, #12
	sub	r3, r3, #12
	mov	r0, r3
	bl	_ZNSt7__cxx1112basic_stringIcSt11char_traitsIcESaIcEED1Ev
	b	.L725
.L864:
.L725:
	sub	r3, fp, #2240
	sub	r3, r3, #12
	sub	r3, r3, #4
	mov	r0, r3
	bl	_ZNSt7__cxx1112basic_stringIcSt11char_traitsIcESaIcEED1Ev
	b	.L726
.L863:
.L726:
	sub	r3, fp, #2208
	sub	r3, r3, #12
	sub	r3, r3, #12
	mov	r0, r3
	bl	_ZNSt7__cxx1112basic_stringIcSt11char_traitsIcESaIcEED1Ev
	b	.L727
.L862:
.L727:
	sub	r3, fp, #2192
	sub	r3, r3, #12
	sub	r3, r3, #4
	mov	r0, r3
	bl	_ZNSt7__cxx1112basic_stringIcSt11char_traitsIcESaIcEED1Ev
	b	.L728
.L861:
.L728:
	sub	r3, fp, #2160
	sub	r3, r3, #12
	sub	r3, r3, #12
	mov	r0, r3
	bl	_ZNSt7__cxx1112basic_stringIcSt11char_traitsIcESaIcEED1Ev
	b	.L729
.L860:
.L729:
	sub	r3, fp, #2096
	sub	r3, r3, #12
	sub	r3, r3, #4
	mov	r0, r3
	bl	_ZNSt7__cxx1112basic_stringIcSt11char_traitsIcESaIcEED1Ev
	b	.L730
.L859:
.L730:
	sub	r3, fp, #2144
	sub	r3, r3, #12
	sub	r3, r3, #4
	mov	r0, r3
	bl	_ZNSt7__cxx1112basic_stringIcSt11char_traitsIcESaIcEED1Ev
	b	.L731
.L858:
.L731:
	sub	r3, fp, #2112
	sub	r3, r3, #12
	sub	r3, r3, #12
	mov	r0, r3
	bl	_ZNSt7__cxx1112basic_stringIcSt11char_traitsIcESaIcEED1Ev
	b	.L673
.L873:
	sub	r3, fp, #2048
	sub	r3, r3, #12
	sub	r3, r3, #4
	mov	r0, r3
	bl	_ZNSt7__cxx1112basic_stringIcSt11char_traitsIcESaIcEED1Ev
	b	.L733
.L872:
.L733:
	sub	r3, fp, #2016
	sub	r3, r3, #12
	sub	r3, r3, #12
	mov	r0, r3
	bl	_ZNSt7__cxx1112basic_stringIcSt11char_traitsIcESaIcEED1Ev
	b	.L734
.L871:
.L734:
	sub	r3, fp, #2000
	sub	r3, r3, #12
	sub	r3, r3, #4
	mov	r0, r3
	bl	_ZNSt7__cxx1112basic_stringIcSt11char_traitsIcESaIcEED1Ev
	b	.L735
.L870:
.L735:
	sub	r3, fp, #1968
	sub	r3, r3, #12
	sub	r3, r3, #12
	mov	r0, r3
	bl	_ZNSt7__cxx1112basic_stringIcSt11char_traitsIcESaIcEED1Ev
	b	.L736
.L869:
.L736:
	sub	r3, fp, #1952
	sub	r3, r3, #12
	sub	r3, r3, #4
	mov	r0, r3
	bl	_ZNSt7__cxx1112basic_stringIcSt11char_traitsIcESaIcEED1Ev
	b	.L737
.L868:
.L737:
	sub	r3, fp, #1872
	sub	r3, r3, #12
	sub	r3, r3, #12
	mov	r0, r3
	bl	_ZNSt7__cxx1112basic_stringIcSt11char_traitsIcESaIcEED1Ev
	b	.L738
.L867:
.L738:
	sub	r3, fp, #1920
	sub	r3, r3, #12
	sub	r3, r3, #12
	mov	r0, r3
	bl	_ZNSt7__cxx1112basic_stringIcSt11char_traitsIcESaIcEED1Ev
	b	.L739
.L866:
.L739:
	sub	r3, fp, #1904
	sub	r3, r3, #12
	sub	r3, r3, #4
	mov	r0, r3
	bl	_ZNSt7__cxx1112basic_stringIcSt11char_traitsIcESaIcEED1Ev
	b	.L673
.L881:
	sub	r3, fp, #1808
	sub	r3, r3, #12
	sub	r3, r3, #4
	mov	r0, r3
	bl	_ZNSt7__cxx1112basic_stringIcSt11char_traitsIcESaIcEED1Ev
	b	.L741
.L880:
.L741:
	sub	r3, fp, #1776
	sub	r3, r3, #12
	sub	r3, r3, #12
	mov	r0, r3
	bl	_ZNSt7__cxx1112basic_stringIcSt11char_traitsIcESaIcEED1Ev
	b	.L742
.L879:
.L742:
	sub	r3, fp, #1760
	sub	r3, r3, #12
	sub	r3, r3, #4
	mov	r0, r3
	bl	_ZNSt7__cxx1112basic_stringIcSt11char_traitsIcESaIcEED1Ev
	b	.L743
.L878:
.L743:
	sub	r3, fp, #1728
	sub	r3, r3, #12
	sub	r3, r3, #12
	mov	r0, r3
	bl	_ZNSt7__cxx1112basic_stringIcSt11char_traitsIcESaIcEED1Ev
	b	.L744
.L877:
.L744:
	sub	r3, fp, #1712
	sub	r3, r3, #12
	sub	r3, r3, #4
	mov	r0, r3
	bl	_ZNSt7__cxx1112basic_stringIcSt11char_traitsIcESaIcEED1Ev
	b	.L745
.L876:
.L745:
	sub	r3, fp, #1632
	sub	r3, r3, #12
	sub	r3, r3, #12
	mov	r0, r3
	bl	_ZNSt7__cxx1112basic_stringIcSt11char_traitsIcESaIcEED1Ev
	b	.L746
.L875:
.L746:
	sub	r3, fp, #1680
	sub	r3, r3, #12
	sub	r3, r3, #12
	mov	r0, r3
	bl	_ZNSt7__cxx1112basic_stringIcSt11char_traitsIcESaIcEED1Ev
	b	.L747
.L874:
.L747:
	sub	r3, fp, #1664
	sub	r3, r3, #12
	sub	r3, r3, #4
	mov	r0, r3
	bl	_ZNSt7__cxx1112basic_stringIcSt11char_traitsIcESaIcEED1Ev
	b	.L673
.L889:
	sub	r3, fp, #1584
	sub	r3, r3, #12
	sub	r3, r3, #12
	mov	r0, r3
	bl	_ZNSt7__cxx1112basic_stringIcSt11char_traitsIcESaIcEED1Ev
	b	.L749
.L888:
.L749:
	sub	r3, fp, #1568
	sub	r3, r3, #12
	sub	r3, r3, #4
	mov	r0, r3
	bl	_ZNSt7__cxx1112basic_stringIcSt11char_traitsIcESaIcEED1Ev
	b	.L750
.L887:
.L750:
	sub	r3, fp, #1536
	sub	r3, r3, #12
	sub	r3, r3, #12
	mov	r0, r3
	bl	_ZNSt7__cxx1112basic_stringIcSt11char_traitsIcESaIcEED1Ev
	b	.L751
.L886:
.L751:
	sub	r3, fp, #1520
	sub	r3, r3, #12
	sub	r3, r3, #4
	mov	r0, r3
	bl	_ZNSt7__cxx1112basic_stringIcSt11char_traitsIcESaIcEED1Ev
	b	.L752
.L885:
.L752:
	sub	r3, fp, #1488
	sub	r3, r3, #12
	sub	r3, r3, #12
	mov	r0, r3
	bl	_ZNSt7__cxx1112basic_stringIcSt11char_traitsIcESaIcEED1Ev
	b	.L753
.L884:
.L753:
	sub	r3, fp, #1424
	sub	r3, r3, #12
	sub	r3, r3, #4
	mov	r0, r3
	bl	_ZNSt7__cxx1112basic_stringIcSt11char_traitsIcESaIcEED1Ev
	b	.L754
.L883:
.L754:
	sub	r3, fp, #1472
	sub	r3, r3, #12
	sub	r3, r3, #4
	mov	r0, r3
	bl	_ZNSt7__cxx1112basic_stringIcSt11char_traitsIcESaIcEED1Ev
	b	.L755
.L882:
.L755:
	sub	r3, fp, #1440
	sub	r3, r3, #12
	sub	r3, r3, #12
	mov	r0, r3
	bl	_ZNSt7__cxx1112basic_stringIcSt11char_traitsIcESaIcEED1Ev
	b	.L673
.L897:
	sub	r3, fp, #1344
	sub	r3, r3, #12
	sub	r3, r3, #12
	mov	r0, r3
	bl	_ZNSt7__cxx1112basic_stringIcSt11char_traitsIcESaIcEED1Ev
	b	.L757
.L896:
.L757:
	sub	r3, fp, #1328
	sub	r3, r3, #12
	sub	r3, r3, #4
	mov	r0, r3
	bl	_ZNSt7__cxx1112basic_stringIcSt11char_traitsIcESaIcEED1Ev
	b	.L758
.L895:
.L758:
	sub	r3, fp, #1296
	sub	r3, r3, #12
	sub	r3, r3, #12
	mov	r0, r3
	bl	_ZNSt7__cxx1112basic_stringIcSt11char_traitsIcESaIcEED1Ev
	b	.L759
.L894:
.L759:
	sub	r3, fp, #1280
	sub	r3, r3, #12
	sub	r3, r3, #4
	mov	r0, r3
	bl	_ZNSt7__cxx1112basic_stringIcSt11char_traitsIcESaIcEED1Ev
	b	.L760
.L893:
.L760:
	sub	r3, fp, #1248
	sub	r3, r3, #12
	sub	r3, r3, #12
	mov	r0, r3
	bl	_ZNSt7__cxx1112basic_stringIcSt11char_traitsIcESaIcEED1Ev
	b	.L761
.L892:
.L761:
	sub	r3, fp, #1184
	sub	r3, r3, #12
	sub	r3, r3, #4
	mov	r0, r3
	bl	_ZNSt7__cxx1112basic_stringIcSt11char_traitsIcESaIcEED1Ev
	b	.L762
.L891:
.L762:
	sub	r3, fp, #1232
	sub	r3, r3, #12
	sub	r3, r3, #4
	mov	r0, r3
	bl	_ZNSt7__cxx1112basic_stringIcSt11char_traitsIcESaIcEED1Ev
	b	.L763
.L890:
.L763:
	sub	r3, fp, #1200
	sub	r3, r3, #12
	sub	r3, r3, #12
	mov	r0, r3
	bl	_ZNSt7__cxx1112basic_stringIcSt11char_traitsIcESaIcEED1Ev
	b	.L673
.L905:
	sub	r3, fp, #1136
	sub	r3, r3, #12
	sub	r3, r3, #4
	mov	r0, r3
	bl	_ZNSt7__cxx1112basic_stringIcSt11char_traitsIcESaIcEED1Ev
	b	.L765
.L904:
.L765:
	sub	r3, fp, #1104
	sub	r3, r3, #12
	sub	r3, r3, #12
	mov	r0, r3
	bl	_ZNSt7__cxx1112basic_stringIcSt11char_traitsIcESaIcEED1Ev
	b	.L766
.L903:
.L766:
	sub	r3, fp, #1088
	sub	r3, r3, #12
	sub	r3, r3, #4
	mov	r0, r3
	bl	_ZNSt7__cxx1112basic_stringIcSt11char_traitsIcESaIcEED1Ev
	b	.L767
.L902:
.L767:
	sub	r3, fp, #1056
	sub	r3, r3, #12
	sub	r3, r3, #12
	mov	r0, r3
	bl	_ZNSt7__cxx1112basic_stringIcSt11char_traitsIcESaIcEED1Ev
	b	.L768
.L901:
.L768:
	sub	r3, fp, #1040
	sub	r3, r3, #12
	sub	r3, r3, #4
	mov	r0, r3
	bl	_ZNSt7__cxx1112basic_stringIcSt11char_traitsIcESaIcEED1Ev
	b	.L769
.L900:
.L769:
	sub	r3, fp, #984
	mov	r0, r3
	bl	_ZNSt7__cxx1112basic_stringIcSt11char_traitsIcESaIcEED1Ev
	b	.L770
.L899:
.L770:
	sub	r3, fp, #1024
	sub	r3, r3, #8
	mov	r0, r3
	bl	_ZNSt7__cxx1112basic_stringIcSt11char_traitsIcESaIcEED1Ev
	b	.L771
.L898:
.L771:
	sub	r3, fp, #1008
	mov	r0, r3
	bl	_ZNSt7__cxx1112basic_stringIcSt11char_traitsIcESaIcEED1Ev
	b	.L673
.L913:
	sub	r3, fp, #912
	mov	r0, r3
	bl	_ZNSt7__cxx1112basic_stringIcSt11char_traitsIcESaIcEED1Ev
	b	.L773
.L912:
.L773:
	sub	r3, fp, #888
	mov	r0, r3
	bl	_ZNSt7__cxx1112basic_stringIcSt11char_traitsIcESaIcEED1Ev
	b	.L774
.L911:
.L774:
	sub	r3, fp, #864
	mov	r0, r3
	bl	_ZNSt7__cxx1112basic_stringIcSt11char_traitsIcESaIcEED1Ev
	b	.L775
.L910:
.L775:
	sub	r3, fp, #840
	mov	r0, r3
	bl	_ZNSt7__cxx1112basic_stringIcSt11char_traitsIcESaIcEED1Ev
	b	.L776
.L909:
.L776:
	sub	r3, fp, #816
	mov	r0, r3
	bl	_ZNSt7__cxx1112basic_stringIcSt11char_traitsIcESaIcEED1Ev
	b	.L777
.L908:
.L777:
	sub	r3, fp, #744
	mov	r0, r3
	bl	_ZNSt7__cxx1112basic_stringIcSt11char_traitsIcESaIcEED1Ev
	b	.L778
.L907:
.L778:
	sub	r3, fp, #792
	mov	r0, r3
	bl	_ZNSt7__cxx1112basic_stringIcSt11char_traitsIcESaIcEED1Ev
	b	.L779
.L906:
.L779:
	sub	r3, fp, #768
	mov	r0, r3
	bl	_ZNSt7__cxx1112basic_stringIcSt11char_traitsIcESaIcEED1Ev
	b	.L673
.L921:
	sub	r3, fp, #696
	mov	r0, r3
	bl	_ZNSt7__cxx1112basic_stringIcSt11char_traitsIcESaIcEED1Ev
	b	.L781
.L920:
.L781:
	sub	r3, fp, #672
	mov	r0, r3
	bl	_ZNSt7__cxx1112basic_stringIcSt11char_traitsIcESaIcEED1Ev
	b	.L782
.L944:
	.align	2
.L943:
	.word	.LC40
	.word	.LC52
	.word	.LC46
	.word	.LC43
	.word	.LC44
	.word	.LC49
	.word	.LC42
	.word	.LC51
.L919:
.L782:
	sub	r3, fp, #648
	mov	r0, r3
	bl	_ZNSt7__cxx1112basic_stringIcSt11char_traitsIcESaIcEED1Ev
	b	.L783
.L918:
.L783:
	sub	r3, fp, #624
	mov	r0, r3
	bl	_ZNSt7__cxx1112basic_stringIcSt11char_traitsIcESaIcEED1Ev
	b	.L784
.L917:
.L784:
	sub	r3, fp, #600
	mov	r0, r3
	bl	_ZNSt7__cxx1112basic_stringIcSt11char_traitsIcESaIcEED1Ev
	b	.L785
.L916:
.L785:
	sub	r3, fp, #528
	mov	r0, r3
	bl	_ZNSt7__cxx1112basic_stringIcSt11char_traitsIcESaIcEED1Ev
	b	.L786
.L915:
.L786:
	sub	r3, fp, #576
	mov	r0, r3
	bl	_ZNSt7__cxx1112basic_stringIcSt11char_traitsIcESaIcEED1Ev
	b	.L787
.L914:
.L787:
	sub	r3, fp, #552
	mov	r0, r3
	bl	_ZNSt7__cxx1112basic_stringIcSt11char_traitsIcESaIcEED1Ev
	b	.L673
.L929:
	sub	r3, fp, #456
	mov	r0, r3
	bl	_ZNSt7__cxx1112basic_stringIcSt11char_traitsIcESaIcEED1Ev
	b	.L789
.L928:
.L789:
	sub	r3, fp, #432
	mov	r0, r3
	bl	_ZNSt7__cxx1112basic_stringIcSt11char_traitsIcESaIcEED1Ev
	b	.L790
.L927:
.L790:
	sub	r3, fp, #408
	mov	r0, r3
	bl	_ZNSt7__cxx1112basic_stringIcSt11char_traitsIcESaIcEED1Ev
	b	.L791
.L926:
.L791:
	sub	r3, fp, #384
	mov	r0, r3
	bl	_ZNSt7__cxx1112basic_stringIcSt11char_traitsIcESaIcEED1Ev
	b	.L792
.L925:
.L792:
	sub	r3, fp, #360
	mov	r0, r3
	bl	_ZNSt7__cxx1112basic_stringIcSt11char_traitsIcESaIcEED1Ev
	b	.L793
.L924:
.L793:
	sub	r3, fp, #288
	mov	r0, r3
	bl	_ZNSt7__cxx1112basic_stringIcSt11char_traitsIcESaIcEED1Ev
	b	.L794
.L923:
.L794:
	sub	r3, fp, #336
	mov	r0, r3
	bl	_ZNSt7__cxx1112basic_stringIcSt11char_traitsIcESaIcEED1Ev
	b	.L795
.L922:
.L795:
	sub	r3, fp, #312
	mov	r0, r3
	bl	_ZNSt7__cxx1112basic_stringIcSt11char_traitsIcESaIcEED1Ev
	b	.L673
.L937:
	sub	r3, fp, #240
	mov	r0, r3
	bl	_ZNSt7__cxx1112basic_stringIcSt11char_traitsIcESaIcEED1Ev
	b	.L797
.L936:
.L797:
	sub	r3, fp, #216
	mov	r0, r3
	bl	_ZNSt7__cxx1112basic_stringIcSt11char_traitsIcESaIcEED1Ev
	b	.L798
.L935:
.L798:
	sub	r3, fp, #192
	mov	r0, r3
	bl	_ZNSt7__cxx1112basic_stringIcSt11char_traitsIcESaIcEED1Ev
	b	.L799
.L934:
.L799:
	sub	r3, fp, #168
	mov	r0, r3
	bl	_ZNSt7__cxx1112basic_stringIcSt11char_traitsIcESaIcEED1Ev
	b	.L800
.L933:
.L800:
	sub	r3, fp, #144
	mov	r0, r3
	bl	_ZNSt7__cxx1112basic_stringIcSt11char_traitsIcESaIcEED1Ev
	b	.L801
.L932:
.L801:
	sub	r3, fp, #72
	mov	r0, r3
	bl	_ZNSt7__cxx1112basic_stringIcSt11char_traitsIcESaIcEED1Ev
	b	.L802
.L931:
.L802:
	sub	r3, fp, #120
	mov	r0, r3
	bl	_ZNSt7__cxx1112basic_stringIcSt11char_traitsIcESaIcEED1Ev
	b	.L803
.L930:
.L803:
	sub	r3, fp, #96
	mov	r0, r3
	bl	_ZNSt7__cxx1112basic_stringIcSt11char_traitsIcESaIcEED1Ev
	b	.L673
.L806:
.L673:
	sub	r3, fp, #3904
	sub	r3, r3, #12
	sub	r3, r3, #4
	mov	r0, r3
	bl	_ZNSt7__cxx1112basic_stringIcSt11char_traitsIcESaIcEED1Ev
	sub	r3, fp, #3872
	sub	r3, r3, #12
	sub	r3, r3, #12
	mov	r0, r3
	bl	_ZNSt7__cxx1112basic_stringIcSt11char_traitsIcESaIcEED1Ev
.L671:
	sub	r3, fp, #3856
	sub	r3, r3, #12
	sub	r3, r3, #4
	mov	r0, r3
	bl	_ZNSt7__cxx1112basic_stringIcSt11char_traitsIcESaIcEED1Ev
.L669:
	ldr	r0, [fp, #-3928]
	bl	_ZNSt7__cxx1112basic_stringIcSt11char_traitsIcESaIcEED1Ev
	sub	r3, fp, #3824
	sub	r3, r3, #12
	sub	r3, r3, #12
	mov	r0, r3
	bl	_ZNSt7__cxx1112basic_stringIcSt11char_traitsIcESaIcEED1Ev
.LEHB409:
	bl	__cxa_end_cleanup
.LEHE409:
.L939:
	ldr	r0, [fp, #-3928]
	sub	sp, fp, #8
	@ sp needed
	pop	{r4, fp, pc}
	.personality	__gxx_personality_v0
	.handlerdata
.LLSDA2706:
	.byte	0xff
	.byte	0xff
	.byte	0x1
	.uleb128 .LLSDACSE2706-.LLSDACSB2706
.LLSDACSB2706:
	.uleb128 .LEHB257-.LFB2706
	.uleb128 .LEHE257-.LEHB257
	.uleb128 0
	.uleb128 0
	.uleb128 .LEHB258-.LFB2706
	.uleb128 .LEHE258-.LEHB258
	.uleb128 .L804-.LFB2706
	.uleb128 0
	.uleb128 .LEHB259-.LFB2706
	.uleb128 .LEHE259-.LEHB259
	.uleb128 .L805-.LFB2706
	.uleb128 0
	.uleb128 .LEHB260-.LFB2706
	.uleb128 .LEHE260-.LEHB260
	.uleb128 .L806-.LFB2706
	.uleb128 0
	.uleb128 .LEHB261-.LFB2706
	.uleb128 .LEHE261-.LEHB261
	.uleb128 .L807-.LFB2706
	.uleb128 0
	.uleb128 .LEHB262-.LFB2706
	.uleb128 .LEHE262-.LEHB262
	.uleb128 .L806-.LFB2706
	.uleb128 0
	.uleb128 .LEHB263-.LFB2706
	.uleb128 .LEHE263-.LEHB263
	.uleb128 .L808-.LFB2706
	.uleb128 0
	.uleb128 .LEHB264-.LFB2706
	.uleb128 .LEHE264-.LEHB264
	.uleb128 .L809-.LFB2706
	.uleb128 0
	.uleb128 .LEHB265-.LFB2706
	.uleb128 .LEHE265-.LEHB265
	.uleb128 .L806-.LFB2706
	.uleb128 0
	.uleb128 .LEHB266-.LFB2706
	.uleb128 .LEHE266-.LEHB266
	.uleb128 .L810-.LFB2706
	.uleb128 0
	.uleb128 .LEHB267-.LFB2706
	.uleb128 .LEHE267-.LEHB267
	.uleb128 .L811-.LFB2706
	.uleb128 0
	.uleb128 .LEHB268-.LFB2706
	.uleb128 .LEHE268-.LEHB268
	.uleb128 .L812-.LFB2706
	.uleb128 0
	.uleb128 .LEHB269-.LFB2706
	.uleb128 .LEHE269-.LEHB269
	.uleb128 .L813-.LFB2706
	.uleb128 0
	.uleb128 .LEHB270-.LFB2706
	.uleb128 .LEHE270-.LEHB270
	.uleb128 .L814-.LFB2706
	.uleb128 0
	.uleb128 .LEHB271-.LFB2706
	.uleb128 .LEHE271-.LEHB271
	.uleb128 .L815-.LFB2706
	.uleb128 0
	.uleb128 .LEHB272-.LFB2706
	.uleb128 .LEHE272-.LEHB272
	.uleb128 .L816-.LFB2706
	.uleb128 0
	.uleb128 .LEHB273-.LFB2706
	.uleb128 .LEHE273-.LEHB273
	.uleb128 .L817-.LFB2706
	.uleb128 0
	.uleb128 .LEHB274-.LFB2706
	.uleb128 .LEHE274-.LEHB274
	.uleb128 .L806-.LFB2706
	.uleb128 0
	.uleb128 .LEHB275-.LFB2706
	.uleb128 .LEHE275-.LEHB275
	.uleb128 .L818-.LFB2706
	.uleb128 0
	.uleb128 .LEHB276-.LFB2706
	.uleb128 .LEHE276-.LEHB276
	.uleb128 .L819-.LFB2706
	.uleb128 0
	.uleb128 .LEHB277-.LFB2706
	.uleb128 .LEHE277-.LEHB277
	.uleb128 .L820-.LFB2706
	.uleb128 0
	.uleb128 .LEHB278-.LFB2706
	.uleb128 .LEHE278-.LEHB278
	.uleb128 .L821-.LFB2706
	.uleb128 0
	.uleb128 .LEHB279-.LFB2706
	.uleb128 .LEHE279-.LEHB279
	.uleb128 .L822-.LFB2706
	.uleb128 0
	.uleb128 .LEHB280-.LFB2706
	.uleb128 .LEHE280-.LEHB280
	.uleb128 .L823-.LFB2706
	.uleb128 0
	.uleb128 .LEHB281-.LFB2706
	.uleb128 .LEHE281-.LEHB281
	.uleb128 .L824-.LFB2706
	.uleb128 0
	.uleb128 .LEHB282-.LFB2706
	.uleb128 .LEHE282-.LEHB282
	.uleb128 .L825-.LFB2706
	.uleb128 0
	.uleb128 .LEHB283-.LFB2706
	.uleb128 .LEHE283-.LEHB283
	.uleb128 .L806-.LFB2706
	.uleb128 0
	.uleb128 .LEHB284-.LFB2706
	.uleb128 .LEHE284-.LEHB284
	.uleb128 .L826-.LFB2706
	.uleb128 0
	.uleb128 .LEHB285-.LFB2706
	.uleb128 .LEHE285-.LEHB285
	.uleb128 .L827-.LFB2706
	.uleb128 0
	.uleb128 .LEHB286-.LFB2706
	.uleb128 .LEHE286-.LEHB286
	.uleb128 .L828-.LFB2706
	.uleb128 0
	.uleb128 .LEHB287-.LFB2706
	.uleb128 .LEHE287-.LEHB287
	.uleb128 .L829-.LFB2706
	.uleb128 0
	.uleb128 .LEHB288-.LFB2706
	.uleb128 .LEHE288-.LEHB288
	.uleb128 .L830-.LFB2706
	.uleb128 0
	.uleb128 .LEHB289-.LFB2706
	.uleb128 .LEHE289-.LEHB289
	.uleb128 .L831-.LFB2706
	.uleb128 0
	.uleb128 .LEHB290-.LFB2706
	.uleb128 .LEHE290-.LEHB290
	.uleb128 .L832-.LFB2706
	.uleb128 0
	.uleb128 .LEHB291-.LFB2706
	.uleb128 .LEHE291-.LEHB291
	.uleb128 .L833-.LFB2706
	.uleb128 0
	.uleb128 .LEHB292-.LFB2706
	.uleb128 .LEHE292-.LEHB292
	.uleb128 .L806-.LFB2706
	.uleb128 0
	.uleb128 .LEHB293-.LFB2706
	.uleb128 .LEHE293-.LEHB293
	.uleb128 .L834-.LFB2706
	.uleb128 0
	.uleb128 .LEHB294-.LFB2706
	.uleb128 .LEHE294-.LEHB294
	.uleb128 .L835-.LFB2706
	.uleb128 0
	.uleb128 .LEHB295-.LFB2706
	.uleb128 .LEHE295-.LEHB295
	.uleb128 .L836-.LFB2706
	.uleb128 0
	.uleb128 .LEHB296-.LFB2706
	.uleb128 .LEHE296-.LEHB296
	.uleb128 .L837-.LFB2706
	.uleb128 0
	.uleb128 .LEHB297-.LFB2706
	.uleb128 .LEHE297-.LEHB297
	.uleb128 .L838-.LFB2706
	.uleb128 0
	.uleb128 .LEHB298-.LFB2706
	.uleb128 .LEHE298-.LEHB298
	.uleb128 .L839-.LFB2706
	.uleb128 0
	.uleb128 .LEHB299-.LFB2706
	.uleb128 .LEHE299-.LEHB299
	.uleb128 .L840-.LFB2706
	.uleb128 0
	.uleb128 .LEHB300-.LFB2706
	.uleb128 .LEHE300-.LEHB300
	.uleb128 .L841-.LFB2706
	.uleb128 0
	.uleb128 .LEHB301-.LFB2706
	.uleb128 .LEHE301-.LEHB301
	.uleb128 .L806-.LFB2706
	.uleb128 0
	.uleb128 .LEHB302-.LFB2706
	.uleb128 .LEHE302-.LEHB302
	.uleb128 .L842-.LFB2706
	.uleb128 0
	.uleb128 .LEHB303-.LFB2706
	.uleb128 .LEHE303-.LEHB303
	.uleb128 .L843-.LFB2706
	.uleb128 0
	.uleb128 .LEHB304-.LFB2706
	.uleb128 .LEHE304-.LEHB304
	.uleb128 .L844-.LFB2706
	.uleb128 0
	.uleb128 .LEHB305-.LFB2706
	.uleb128 .LEHE305-.LEHB305
	.uleb128 .L845-.LFB2706
	.uleb128 0
	.uleb128 .LEHB306-.LFB2706
	.uleb128 .LEHE306-.LEHB306
	.uleb128 .L846-.LFB2706
	.uleb128 0
	.uleb128 .LEHB307-.LFB2706
	.uleb128 .LEHE307-.LEHB307
	.uleb128 .L847-.LFB2706
	.uleb128 0
	.uleb128 .LEHB308-.LFB2706
	.uleb128 .LEHE308-.LEHB308
	.uleb128 .L848-.LFB2706
	.uleb128 0
	.uleb128 .LEHB309-.LFB2706
	.uleb128 .LEHE309-.LEHB309
	.uleb128 .L849-.LFB2706
	.uleb128 0
	.uleb128 .LEHB310-.LFB2706
	.uleb128 .LEHE310-.LEHB310
	.uleb128 .L806-.LFB2706
	.uleb128 0
	.uleb128 .LEHB311-.LFB2706
	.uleb128 .LEHE311-.LEHB311
	.uleb128 .L850-.LFB2706
	.uleb128 0
	.uleb128 .LEHB312-.LFB2706
	.uleb128 .LEHE312-.LEHB312
	.uleb128 .L851-.LFB2706
	.uleb128 0
	.uleb128 .LEHB313-.LFB2706
	.uleb128 .LEHE313-.LEHB313
	.uleb128 .L852-.LFB2706
	.uleb128 0
	.uleb128 .LEHB314-.LFB2706
	.uleb128 .LEHE314-.LEHB314
	.uleb128 .L853-.LFB2706
	.uleb128 0
	.uleb128 .LEHB315-.LFB2706
	.uleb128 .LEHE315-.LEHB315
	.uleb128 .L854-.LFB2706
	.uleb128 0
	.uleb128 .LEHB316-.LFB2706
	.uleb128 .LEHE316-.LEHB316
	.uleb128 .L855-.LFB2706
	.uleb128 0
	.uleb128 .LEHB317-.LFB2706
	.uleb128 .LEHE317-.LEHB317
	.uleb128 .L856-.LFB2706
	.uleb128 0
	.uleb128 .LEHB318-.LFB2706
	.uleb128 .LEHE318-.LEHB318
	.uleb128 .L857-.LFB2706
	.uleb128 0
	.uleb128 .LEHB319-.LFB2706
	.uleb128 .LEHE319-.LEHB319
	.uleb128 .L806-.LFB2706
	.uleb128 0
	.uleb128 .LEHB320-.LFB2706
	.uleb128 .LEHE320-.LEHB320
	.uleb128 .L858-.LFB2706
	.uleb128 0
	.uleb128 .LEHB321-.LFB2706
	.uleb128 .LEHE321-.LEHB321
	.uleb128 .L859-.LFB2706
	.uleb128 0
	.uleb128 .LEHB322-.LFB2706
	.uleb128 .LEHE322-.LEHB322
	.uleb128 .L860-.LFB2706
	.uleb128 0
	.uleb128 .LEHB323-.LFB2706
	.uleb128 .LEHE323-.LEHB323
	.uleb128 .L861-.LFB2706
	.uleb128 0
	.uleb128 .LEHB324-.LFB2706
	.uleb128 .LEHE324-.LEHB324
	.uleb128 .L862-.LFB2706
	.uleb128 0
	.uleb128 .LEHB325-.LFB2706
	.uleb128 .LEHE325-.LEHB325
	.uleb128 .L863-.LFB2706
	.uleb128 0
	.uleb128 .LEHB326-.LFB2706
	.uleb128 .LEHE326-.LEHB326
	.uleb128 .L864-.LFB2706
	.uleb128 0
	.uleb128 .LEHB327-.LFB2706
	.uleb128 .LEHE327-.LEHB327
	.uleb128 .L865-.LFB2706
	.uleb128 0
	.uleb128 .LEHB328-.LFB2706
	.uleb128 .LEHE328-.LEHB328
	.uleb128 .L806-.LFB2706
	.uleb128 0
	.uleb128 .LEHB329-.LFB2706
	.uleb128 .LEHE329-.LEHB329
	.uleb128 .L866-.LFB2706
	.uleb128 0
	.uleb128 .LEHB330-.LFB2706
	.uleb128 .LEHE330-.LEHB330
	.uleb128 .L867-.LFB2706
	.uleb128 0
	.uleb128 .LEHB331-.LFB2706
	.uleb128 .LEHE331-.LEHB331
	.uleb128 .L868-.LFB2706
	.uleb128 0
	.uleb128 .LEHB332-.LFB2706
	.uleb128 .LEHE332-.LEHB332
	.uleb128 .L869-.LFB2706
	.uleb128 0
	.uleb128 .LEHB333-.LFB2706
	.uleb128 .LEHE333-.LEHB333
	.uleb128 .L870-.LFB2706
	.uleb128 0
	.uleb128 .LEHB334-.LFB2706
	.uleb128 .LEHE334-.LEHB334
	.uleb128 .L871-.LFB2706
	.uleb128 0
	.uleb128 .LEHB335-.LFB2706
	.uleb128 .LEHE335-.LEHB335
	.uleb128 .L872-.LFB2706
	.uleb128 0
	.uleb128 .LEHB336-.LFB2706
	.uleb128 .LEHE336-.LEHB336
	.uleb128 .L873-.LFB2706
	.uleb128 0
	.uleb128 .LEHB337-.LFB2706
	.uleb128 .LEHE337-.LEHB337
	.uleb128 .L806-.LFB2706
	.uleb128 0
	.uleb128 .LEHB338-.LFB2706
	.uleb128 .LEHE338-.LEHB338
	.uleb128 .L874-.LFB2706
	.uleb128 0
	.uleb128 .LEHB339-.LFB2706
	.uleb128 .LEHE339-.LEHB339
	.uleb128 .L875-.LFB2706
	.uleb128 0
	.uleb128 .LEHB340-.LFB2706
	.uleb128 .LEHE340-.LEHB340
	.uleb128 .L876-.LFB2706
	.uleb128 0
	.uleb128 .LEHB341-.LFB2706
	.uleb128 .LEHE341-.LEHB341
	.uleb128 .L877-.LFB2706
	.uleb128 0
	.uleb128 .LEHB342-.LFB2706
	.uleb128 .LEHE342-.LEHB342
	.uleb128 .L878-.LFB2706
	.uleb128 0
	.uleb128 .LEHB343-.LFB2706
	.uleb128 .LEHE343-.LEHB343
	.uleb128 .L879-.LFB2706
	.uleb128 0
	.uleb128 .LEHB344-.LFB2706
	.uleb128 .LEHE344-.LEHB344
	.uleb128 .L880-.LFB2706
	.uleb128 0
	.uleb128 .LEHB345-.LFB2706
	.uleb128 .LEHE345-.LEHB345
	.uleb128 .L881-.LFB2706
	.uleb128 0
	.uleb128 .LEHB346-.LFB2706
	.uleb128 .LEHE346-.LEHB346
	.uleb128 .L806-.LFB2706
	.uleb128 0
	.uleb128 .LEHB347-.LFB2706
	.uleb128 .LEHE347-.LEHB347
	.uleb128 .L882-.LFB2706
	.uleb128 0
	.uleb128 .LEHB348-.LFB2706
	.uleb128 .LEHE348-.LEHB348
	.uleb128 .L883-.LFB2706
	.uleb128 0
	.uleb128 .LEHB349-.LFB2706
	.uleb128 .LEHE349-.LEHB349
	.uleb128 .L884-.LFB2706
	.uleb128 0
	.uleb128 .LEHB350-.LFB2706
	.uleb128 .LEHE350-.LEHB350
	.uleb128 .L885-.LFB2706
	.uleb128 0
	.uleb128 .LEHB351-.LFB2706
	.uleb128 .LEHE351-.LEHB351
	.uleb128 .L886-.LFB2706
	.uleb128 0
	.uleb128 .LEHB352-.LFB2706
	.uleb128 .LEHE352-.LEHB352
	.uleb128 .L887-.LFB2706
	.uleb128 0
	.uleb128 .LEHB353-.LFB2706
	.uleb128 .LEHE353-.LEHB353
	.uleb128 .L888-.LFB2706
	.uleb128 0
	.uleb128 .LEHB354-.LFB2706
	.uleb128 .LEHE354-.LEHB354
	.uleb128 .L889-.LFB2706
	.uleb128 0
	.uleb128 .LEHB355-.LFB2706
	.uleb128 .LEHE355-.LEHB355
	.uleb128 .L806-.LFB2706
	.uleb128 0
	.uleb128 .LEHB356-.LFB2706
	.uleb128 .LEHE356-.LEHB356
	.uleb128 .L890-.LFB2706
	.uleb128 0
	.uleb128 .LEHB357-.LFB2706
	.uleb128 .LEHE357-.LEHB357
	.uleb128 .L891-.LFB2706
	.uleb128 0
	.uleb128 .LEHB358-.LFB2706
	.uleb128 .LEHE358-.LEHB358
	.uleb128 .L892-.LFB2706
	.uleb128 0
	.uleb128 .LEHB359-.LFB2706
	.uleb128 .LEHE359-.LEHB359
	.uleb128 .L893-.LFB2706
	.uleb128 0
	.uleb128 .LEHB360-.LFB2706
	.uleb128 .LEHE360-.LEHB360
	.uleb128 .L894-.LFB2706
	.uleb128 0
	.uleb128 .LEHB361-.LFB2706
	.uleb128 .LEHE361-.LEHB361
	.uleb128 .L895-.LFB2706
	.uleb128 0
	.uleb128 .LEHB362-.LFB2706
	.uleb128 .LEHE362-.LEHB362
	.uleb128 .L896-.LFB2706
	.uleb128 0
	.uleb128 .LEHB363-.LFB2706
	.uleb128 .LEHE363-.LEHB363
	.uleb128 .L897-.LFB2706
	.uleb128 0
	.uleb128 .LEHB364-.LFB2706
