	.arch armv6
	.eabi_attribute 28, 1
	.eabi_attribute 20, 1
	.eabi_attribute 21, 1
	.eabi_attribute 23, 3
	.eabi_attribute 24, 1
	.eabi_attribute 25, 1
	.eabi_attribute 26, 2
	.eabi_attribute 30, 2
	.eabi_attribute 34, 1
	.eabi_attribute 18, 4
	.file	"hw3.cc"
	.text
.Ltext0:
	.cfi_sections	.debug_frame
	.section	.text._ZlsRSoRK6BigNum,"axG",%progbits,_ZlsRSoRK6BigNum,comdat
	.align	2
	.weak	_ZlsRSoRK6BigNum
	.syntax unified
	.arm
	.fpu vfp
	.type	_ZlsRSoRK6BigNum, %function
_ZlsRSoRK6BigNum:
	.fnstart
.LFB1442:
	.file 1 "BigNum.hh"
	.loc 1 15 0
	.cfi_startproc
	@ args = 0, pretend = 0, frame = 0
	@ frame_needed = 0, uses_anonymous_args = 0
.LVL0:
	push	{r4, r5, r6, lr}
	.save {r4, r5, r6, lr}
	.cfi_def_cfa_offset 16
	.cfi_offset 4, -16
	.cfi_offset 5, -12
	.cfi_offset 6, -8
	.cfi_offset 14, -4
	.loc 1 15 0
	mov	r4, r1
.LVL1:
.LBB60:
.LBB61:
	.file 2 "/usr/include/c++/6/ostream"
	.loc 2 196 0
	ldr	r1, [r1]
.LVL2:
	bl	_ZNSo9_M_insertImEERSoT_
.LVL3:
.LBE61:
.LBE60:
.LBB63:
.LBB64:
	.loc 2 561 0
	ldr	r5, .L3
	mov	r2, #1
	mov	r1, r5
.LBE64:
.LBE63:
.LBB66:
.LBB62:
	.loc 2 196 0
	mov	r6, r0
.LVL4:
.LBE62:
.LBE66:
.LBB67:
.LBB65:
	.loc 2 561 0
	bl	_ZSt16__ostream_insertIcSt11char_traitsIcEERSt13basic_ostreamIT_T0_ES6_PKS3_i
.LVL5:
.LBE65:
.LBE67:
.LBB68:
.LBB69:
	.loc 2 196 0
	ldr	r1, [r4, #4]
	mov	r0, r6
	bl	_ZNSo9_M_insertImEERSoT_
.LVL6:
.LBE69:
.LBE68:
.LBB71:
.LBB72:
	.loc 2 561 0
	mov	r1, r5
	mov	r2, #1
.LBE72:
.LBE71:
.LBB74:
.LBB70:
	.loc 2 196 0
	mov	r6, r0
.LVL7:
.LBE70:
.LBE74:
.LBB75:
.LBB73:
	.loc 2 561 0
	bl	_ZSt16__ostream_insertIcSt11char_traitsIcEERSt13basic_ostreamIT_T0_ES6_PKS3_i
.LVL8:
.LBE73:
.LBE75:
.LBB76:
.LBB77:
	.loc 2 196 0
	ldr	r1, [r4, #8]
	mov	r0, r6
	bl	_ZNSo9_M_insertImEERSoT_
.LVL9:
.LBE77:
.LBE76:
.LBB79:
.LBB80:
	.loc 2 561 0
	mov	r1, r5
	mov	r2, #1
.LBE80:
.LBE79:
.LBB82:
.LBB78:
	.loc 2 196 0
	mov	r6, r0
.LVL10:
.LBE78:
.LBE82:
.LBB83:
.LBB81:
	.loc 2 561 0
	bl	_ZSt16__ostream_insertIcSt11char_traitsIcEERSt13basic_ostreamIT_T0_ES6_PKS3_i
.LVL11:
.LBE81:
.LBE83:
.LBB84:
.LBB85:
	.loc 2 196 0
	ldr	r1, [r4, #12]
	mov	r0, r6
.LBE85:
.LBE84:
	.loc 1 17 0
	pop	{r4, r5, r6, lr}
	.cfi_restore 14
	.cfi_restore 6
	.cfi_restore 5
	.cfi_restore 4
	.cfi_def_cfa_offset 0
.LVL12:
.LBB87:
.LBB86:
	.loc 2 196 0
	b	_ZNSo9_M_insertImEERSoT_
.LVL13:
.L4:
	.align	2
.L3:
	.word	.LC0
.LBE86:
.LBE87:
	.cfi_endproc
.LFE1442:
	.fnend
	.size	_ZlsRSoRK6BigNum, .-_ZlsRSoRK6BigNum
	.section	.text.startup,"ax",%progbits
	.align	2
	.global	main
	.syntax unified
	.arm
	.fpu vfp
	.type	main, %function
main:
	.fnstart
.LFB1443:
	.file 3 "hw3.cc"
	.loc 3 5 0
	.cfi_startproc
	@ args = 0, pretend = 0, frame = 104
	@ frame_needed = 0, uses_anonymous_args = 0
	push	{r4, r5, r6, r7, lr}
	.save {r4, r5, r6, r7, lr}
	.cfi_def_cfa_offset 20
	.cfi_offset 4, -20
	.cfi_offset 5, -16
	.cfi_offset 6, -12
	.cfi_offset 7, -8
	.cfi_offset 14, -4
	.pad #108
	sub	sp, sp, #108
	.cfi_def_cfa_offset 128
.LVL14:
	.loc 3 15 0
	ldr	r7, .L7
.LBB88:
.LBB89:
.LBB90:
	.loc 1 11 0
	mov	r4, #0
	mov	ip, #3
.LBE90:
.LBE89:
.LBE88:
.LBB95:
.LBB96:
.LBB97:
	mov	r3, #5
.LBE97:
.LBE96:
.LBE95:
	.loc 3 9 0
	add	r2, sp, #24
	add	r0, sp, #40
	add	r1, sp, #8
.LVL15:
.LBB102:
.LBB93:
.LBB91:
	.loc 1 11 0
	str	ip, [sp, #20]
.LVL16:
.LBE91:
.LBE93:
.LBE102:
.LBB103:
.LBB100:
.LBB98:
	str	r3, [sp, #36]
.LVL17:
.LBE98:
.LBE100:
.LBE103:
.LBB104:
.LBB94:
.LBB92:
	str	r4, [sp, #8]
	str	r4, [sp, #12]
	str	r4, [sp, #16]
.LBE92:
.LBE94:
.LBE104:
.LBB105:
.LBB101:
.LBB99:
	str	r4, [sp, #24]
	str	r4, [sp, #28]
	str	r4, [sp, #32]
.LBE99:
.LBE101:
.LBE105:
	.loc 3 9 0
	bl	_Z6add128R6BigNumRKS_S2_
.LVL18:
	.loc 3 15 0
	add	r1, sp, #40
	mov	r0, r7
	bl	_ZlsRSoRK6BigNum
.LVL19:
	add	r1, sp, #104
	mov	r5, #10
	strb	r5, [r1, #-98]!
.LVL20:
.LBB106:
.LBB107:
	.loc 2 509 0
	mov	r2, #1
	bl	_ZSt16__ostream_insertIcSt11char_traitsIcEERSt13basic_ostreamIT_T0_ES6_PKS3_i
.LVL21:
.LBE107:
.LBE106:
.LBB108:
.LBB109:
.LBB110:
	.loc 1 11 0
	mov	r6, #1
.LBE110:
.LBE109:
.LBE108:
.LBB113:
.LBB114:
.LBB115:
	mvn	r3, #0
.LBE115:
.LBE114:
.LBE113:
	.loc 3 21 0
	add	r2, sp, #72
	add	r0, sp, #88
	add	r1, sp, #56
.LVL22:
.LBB118:
.LBB117:
.LBB116:
	.loc 1 11 0
	str	r3, [sp, #68]
.LVL23:
	str	r4, [sp, #56]
	str	r4, [sp, #60]
	str	r4, [sp, #64]
.LBE116:
.LBE117:
.LBE118:
.LBB119:
.LBB112:
.LBB111:
	str	r4, [sp, #72]
	str	r4, [sp, #76]
	str	r4, [sp, #80]
	str	r6, [sp, #84]
.LVL24:
.LBE111:
.LBE112:
.LBE119:
	.loc 3 21 0
	bl	_Z6add128R6BigNumRKS_S2_
.LVL25:
	.loc 3 27 0
	add	r1, sp, #88
	mov	r0, r7
	bl	_ZlsRSoRK6BigNum
.LVL26:
	add	r1, sp, #104
.LBB120:
.LBB121:
	.loc 2 509 0
	mov	r2, r6
	strb	r5, [r1, #-97]!
.LVL27:
	bl	_ZSt16__ostream_insertIcSt11char_traitsIcEERSt13basic_ostreamIT_T0_ES6_PKS3_i
.LVL28:
.LBE121:
.LBE120:
	.loc 3 28 0
	mov	r0, r4
	add	sp, sp, #108
	.cfi_def_cfa_offset 20
	@ sp needed
	pop	{r4, r5, r6, r7, pc}
.L8:
	.align	2
.L7:
	.word	_ZSt4cout
	.cfi_endproc
.LFE1443:
	.fnend
	.size	main, .-main
	.align	2
	.syntax unified
	.arm
	.fpu vfp
	.type	_GLOBAL__sub_I_main, %function
_GLOBAL__sub_I_main:
	.fnstart
.LFB1728:
	.loc 3 28 0
	.cfi_startproc
	@ args = 0, pretend = 0, frame = 0
	@ frame_needed = 0, uses_anonymous_args = 0
.LVL29:
	push	{r4, lr}
	.cfi_def_cfa_offset 8
	.cfi_offset 4, -8
	.cfi_offset 14, -4
.LBB122:
.LBB123:
	.file 4 "/usr/include/c++/6/iostream"
	.loc 4 74 0
	ldr	r4, .L11
	mov	r0, r4
	bl	_ZNSt8ios_base4InitC1Ev
.LVL30:
	mov	r0, r4
	ldr	r2, .L11+4
	ldr	r1, .L11+8
.LBE123:
.LBE122:
	.loc 3 28 0
	pop	{r4, lr}
	.cfi_restore 14
	.cfi_restore 4
	.cfi_def_cfa_offset 0
.LBB125:
.LBB124:
	.loc 4 74 0
	b	__aeabi_atexit
.LVL31:
.L12:
	.align	2
.L11:
	.word	.LANCHOR0
	.word	__dso_handle
	.word	_ZNSt8ios_base4InitD1Ev
.LBE124:
.LBE125:
	.cfi_endproc
.LFE1728:
	.cantunwind
	.fnend
	.size	_GLOBAL__sub_I_main, .-_GLOBAL__sub_I_main
	.section	.init_array,"aw"
	.align	2
	.word	_GLOBAL__sub_I_main
	.bss
	.align	2
	.set	.LANCHOR0,. + 0
	.type	_ZStL8__ioinit, %object
	.size	_ZStL8__ioinit, 1
_ZStL8__ioinit:
	.space	1
	.section	.rodata._ZlsRSoRK6BigNum.str1.4,"aMS",%progbits,1
	.align	2
.LC0:
	.ascii	",\000"
	.text
.Letext0:
	.file 5 "/usr/include/c++/6/cwchar"
	.file 6 "/usr/include/c++/6/bits/exception_ptr.h"
	.file 7 "/usr/include/arm-linux-gnueabihf/c++/6/bits/c++config.h"
	.file 8 "/usr/include/c++/6/type_traits"
	.file 9 "/usr/include/c++/6/bits/stl_pair.h"
	.file 10 "/usr/include/c++/6/debug/debug.h"
	.file 11 "/usr/include/c++/6/bits/char_traits.h"
	.file 12 "/usr/include/c++/6/cstdint"
	.file 13 "/usr/include/c++/6/clocale"
	.file 14 "/usr/include/c++/6/new"
	.file 15 "/usr/include/c++/6/cstdlib"
	.file 16 "/usr/include/c++/6/cstdio"
	.file 17 "/usr/include/c++/6/system_error"
	.file 18 "/usr/include/c++/6/bits/ios_base.h"
	.file 19 "/usr/include/c++/6/cwctype"
	.file 20 "/usr/include/c++/6/iosfwd"
	.file 21 "/usr/include/c++/6/bits/basic_ios.h"
	.file 22 "/usr/include/c++/6/bits/ostream.tcc"
	.file 23 "/usr/include/c++/6/bits/ostream_insert.h"
	.file 24 "/usr/include/c++/6/bits/predefined_ops.h"
	.file 25 "/usr/include/c++/6/ext/new_allocator.h"
	.file 26 "/usr/include/c++/6/ext/numeric_traits.h"
	.file 27 "/usr/include/stdio.h"
	.file 28 "/usr/include/libio.h"
	.file 29 "/usr/lib/gcc/arm-linux-gnueabihf/6/include/stdarg.h"
	.file 30 "<built-in>"
	.file 31 "/usr/lib/gcc/arm-linux-gnueabihf/6/include/stddef.h"
	.file 32 "/usr/include/wchar.h"
	.file 33 "/usr/include/time.h"
	.file 34 "/usr/include/stdint.h"
	.file 35 "/usr/include/locale.h"
	.file 36 "/usr/include/arm-linux-gnueabihf/bits/types.h"
	.file 37 "/usr/include/arm-linux-gnueabihf/c++/6/bits/atomic_word.h"
	.file 38 "/usr/include/stdlib.h"
	.file 39 "/usr/include/arm-linux-gnueabihf/bits/stdlib-float.h"
	.file 40 "/usr/include/arm-linux-gnueabihf/bits/stdlib-bsearch.h"
	.file 41 "/usr/include/_G_config.h"
	.file 42 "/usr/include/arm-linux-gnueabihf/bits/sys_errlist.h"
	.file 43 "/usr/include/arm-linux-gnueabihf/bits/stdio.h"
	.file 44 "/usr/include/errno.h"
	.file 45 "/usr/include/wctype.h"
	.section	.note.GNU-stack,"",%progbits
